
bomb:     file format elf64-x86-64
bomb
architecture: i386:x86-64, flags 0x00000150:
HAS_SYMS, DYNAMIC, D_PAGED
start address 0x00000000000023c0

Program Header:
    PHDR off    0x0000000000000040 vaddr 0x0000000000000040 paddr 0x0000000000000040 align 2**3
         filesz 0x00000000000002d8 memsz 0x00000000000002d8 flags r--
  INTERP off    0x0000000000000318 vaddr 0x0000000000000318 paddr 0x0000000000000318 align 2**0
         filesz 0x000000000000001c memsz 0x000000000000001c flags r--
    LOAD off    0x0000000000000000 vaddr 0x0000000000000000 paddr 0x0000000000000000 align 2**12
         filesz 0x0000000000001458 memsz 0x0000000000001458 flags r--
    LOAD off    0x0000000000002000 vaddr 0x0000000000002000 paddr 0x0000000000002000 align 2**12
         filesz 0x0000000000001e75 memsz 0x0000000000001e75 flags r-x
    LOAD off    0x0000000000004000 vaddr 0x0000000000004000 paddr 0x0000000000004000 align 2**12
         filesz 0x00000000000010c8 memsz 0x00000000000010c8 flags r--
    LOAD off    0x0000000000005ce0 vaddr 0x0000000000006ce0 paddr 0x0000000000006ce0 align 2**12
         filesz 0x0000000000000da0 memsz 0x0000000000001470 flags rw-
 DYNAMIC off    0x0000000000005cf0 vaddr 0x0000000000006cf0 paddr 0x0000000000006cf0 align 2**3
         filesz 0x00000000000001f0 memsz 0x00000000000001f0 flags rw-
    NOTE off    0x0000000000000338 vaddr 0x0000000000000338 paddr 0x0000000000000338 align 2**3
         filesz 0x0000000000000020 memsz 0x0000000000000020 flags r--
    NOTE off    0x0000000000000358 vaddr 0x0000000000000358 paddr 0x0000000000000358 align 2**2
         filesz 0x0000000000000044 memsz 0x0000000000000044 flags r--
0x6474e553 off    0x0000000000000338 vaddr 0x0000000000000338 paddr 0x0000000000000338 align 2**3
         filesz 0x0000000000000020 memsz 0x0000000000000020 flags r--
EH_FRAME off    0x0000000000004a04 vaddr 0x0000000000004a04 paddr 0x0000000000004a04 align 2**2
         filesz 0x0000000000000134 memsz 0x0000000000000134 flags r--
   STACK off    0x0000000000000000 vaddr 0x0000000000000000 paddr 0x0000000000000000 align 2**4
         filesz 0x0000000000000000 memsz 0x0000000000000000 flags rw-
   RELRO off    0x0000000000005ce0 vaddr 0x0000000000006ce0 paddr 0x0000000000006ce0 align 2**0
         filesz 0x0000000000000320 memsz 0x0000000000000320 flags r--

Dynamic Section:
  NEEDED               libc.so.6
  INIT                 0x0000000000002000
  FINI                 0x0000000000003e68
  INIT_ARRAY           0x0000000000006ce0
  INIT_ARRAYSZ         0x0000000000000008
  FINI_ARRAY           0x0000000000006ce8
  FINI_ARRAYSZ         0x0000000000000008
  GNU_HASH             0x00000000000003a0
  STRTAB               0x0000000000000750
  SYMTAB               0x00000000000003d8
  STRSZ                0x00000000000001c3
  SYMENT               0x0000000000000018
  DEBUG                0x0000000000000000
  PLTGOT               0x0000000000006ee0
  PLTRELSZ             0x00000000000002a0
  PLTREL               0x0000000000000007
  JMPREL               0x00000000000011b8
  RELA                 0x00000000000009c0
  RELASZ               0x00000000000007f8
  RELAENT              0x0000000000000018
  FLAGS                0x0000000000000008
  FLAGS_1              0x0000000008000001
  VERNEED              0x0000000000000960
  VERNEEDNUM           0x0000000000000001
  VERSYM               0x0000000000000914
  RELACOUNT            0x000000000000004d

Version References:
  required from libc.so.6:
    0x0d696913 0x00 06 GLIBC_2.3
    0x0d696917 0x00 05 GLIBC_2.7
    0x09691974 0x00 04 GLIBC_2.3.4
    0x0d696914 0x00 03 GLIBC_2.4
    0x09691a75 0x00 02 GLIBC_2.2.5

Sections:
Idx Name          Size      VMA               LMA               File off  Algn
  0 .interp       0000001c  0000000000000318  0000000000000318  00000318  2**0
                  CONTENTS, ALLOC, LOAD, READONLY, DATA
  1 .note.gnu.property 00000020  0000000000000338  0000000000000338  00000338  2**3
                  CONTENTS, ALLOC, LOAD, READONLY, DATA
  2 .note.gnu.build-id 00000024  0000000000000358  0000000000000358  00000358  2**2
                  CONTENTS, ALLOC, LOAD, READONLY, DATA
  3 .note.ABI-tag 00000020  000000000000037c  000000000000037c  0000037c  2**2
                  CONTENTS, ALLOC, LOAD, READONLY, DATA
  4 .gnu.hash     00000034  00000000000003a0  00000000000003a0  000003a0  2**3
                  CONTENTS, ALLOC, LOAD, READONLY, DATA
  5 .dynsym       00000378  00000000000003d8  00000000000003d8  000003d8  2**3
                  CONTENTS, ALLOC, LOAD, READONLY, DATA
  6 .dynstr       000001c3  0000000000000750  0000000000000750  00000750  2**0
                  CONTENTS, ALLOC, LOAD, READONLY, DATA
  7 .gnu.version  0000004a  0000000000000914  0000000000000914  00000914  2**1
                  CONTENTS, ALLOC, LOAD, READONLY, DATA
  8 .gnu.version_r 00000060  0000000000000960  0000000000000960  00000960  2**3
                  CONTENTS, ALLOC, LOAD, READONLY, DATA
  9 .rela.dyn     000007f8  00000000000009c0  00000000000009c0  000009c0  2**3
                  CONTENTS, ALLOC, LOAD, READONLY, DATA
 10 .rela.plt     000002a0  00000000000011b8  00000000000011b8  000011b8  2**3
                  CONTENTS, ALLOC, LOAD, READONLY, DATA
 11 .init         0000001b  0000000000002000  0000000000002000  00002000  2**2
                  CONTENTS, ALLOC, LOAD, READONLY, CODE
 12 .plt          000001d0  0000000000002020  0000000000002020  00002020  2**4
                  CONTENTS, ALLOC, LOAD, READONLY, CODE
 13 .plt.got      00000010  00000000000021f0  00000000000021f0  000021f0  2**4
                  CONTENTS, ALLOC, LOAD, READONLY, CODE
 14 .plt.sec      000001c0  0000000000002200  0000000000002200  00002200  2**4
                  CONTENTS, ALLOC, LOAD, READONLY, CODE
 15 .text         00001aa5  00000000000023c0  00000000000023c0  000023c0  2**4
                  CONTENTS, ALLOC, LOAD, READONLY, CODE
 16 .fini         0000000d  0000000000003e68  0000000000003e68  00003e68  2**2
                  CONTENTS, ALLOC, LOAD, READONLY, CODE
 17 .rodata       00000a03  0000000000004000  0000000000004000  00004000  2**5
                  CONTENTS, ALLOC, LOAD, READONLY, DATA
 18 .eh_frame_hdr 00000134  0000000000004a04  0000000000004a04  00004a04  2**2
                  CONTENTS, ALLOC, LOAD, READONLY, DATA
 19 .eh_frame     00000590  0000000000004b38  0000000000004b38  00004b38  2**3
                  CONTENTS, ALLOC, LOAD, READONLY, DATA
 20 .init_array   00000008  0000000000006ce0  0000000000006ce0  00005ce0  2**3
                  CONTENTS, ALLOC, LOAD, DATA
 21 .fini_array   00000008  0000000000006ce8  0000000000006ce8  00005ce8  2**3
                  CONTENTS, ALLOC, LOAD, DATA
 22 .dynamic      000001f0  0000000000006cf0  0000000000006cf0  00005cf0  2**3
                  CONTENTS, ALLOC, LOAD, DATA
 23 .got          00000120  0000000000006ee0  0000000000006ee0  00005ee0  2**3
                  CONTENTS, ALLOC, LOAD, DATA
 24 .data         00000a80  0000000000007000  0000000000007000  00006000  2**5
                  CONTENTS, ALLOC, LOAD, DATA
 25 .bss          000006d0  0000000000007a80  0000000000007a80  00006a80  2**5
                  ALLOC
 26 .comment      0000002b  0000000000000000  0000000000000000  00006a80  2**0
                  CONTENTS, READONLY
 27 .debug_aranges 00000030  0000000000000000  0000000000000000  00006aab  2**0
                  CONTENTS, READONLY, DEBUGGING, OCTETS
 28 .debug_info   00000b33  0000000000000000  0000000000000000  00006adb  2**0
                  CONTENTS, READONLY, DEBUGGING, OCTETS
 29 .debug_abbrev 000001d0  0000000000000000  0000000000000000  0000760e  2**0
                  CONTENTS, READONLY, DEBUGGING, OCTETS
 30 .debug_line   000002f1  0000000000000000  0000000000000000  000077de  2**0
                  CONTENTS, READONLY, DEBUGGING, OCTETS
 31 .debug_str    000003a1  0000000000000000  0000000000000000  00007acf  2**0
                  CONTENTS, READONLY, DEBUGGING, OCTETS
 32 .debug_loc    000003e0  0000000000000000  0000000000000000  00007e70  2**0
                  CONTENTS, READONLY, DEBUGGING, OCTETS
SYMBOL TABLE:
0000000000000318 l    d  .interp	0000000000000000              .interp
0000000000000338 l    d  .note.gnu.property	0000000000000000              .note.gnu.property
0000000000000358 l    d  .note.gnu.build-id	0000000000000000              .note.gnu.build-id
000000000000037c l    d  .note.ABI-tag	0000000000000000              .note.ABI-tag
00000000000003a0 l    d  .gnu.hash	0000000000000000              .gnu.hash
00000000000003d8 l    d  .dynsym	0000000000000000              .dynsym
0000000000000750 l    d  .dynstr	0000000000000000              .dynstr
0000000000000914 l    d  .gnu.version	0000000000000000              .gnu.version
0000000000000960 l    d  .gnu.version_r	0000000000000000              .gnu.version_r
00000000000009c0 l    d  .rela.dyn	0000000000000000              .rela.dyn
00000000000011b8 l    d  .rela.plt	0000000000000000              .rela.plt
0000000000002000 l    d  .init	0000000000000000              .init
0000000000002020 l    d  .plt	0000000000000000              .plt
00000000000021f0 l    d  .plt.got	0000000000000000              .plt.got
0000000000002200 l    d  .plt.sec	0000000000000000              .plt.sec
00000000000023c0 l    d  .text	0000000000000000              .text
0000000000003e68 l    d  .fini	0000000000000000              .fini
0000000000004000 l    d  .rodata	0000000000000000              .rodata
0000000000004a04 l    d  .eh_frame_hdr	0000000000000000              .eh_frame_hdr
0000000000004b38 l    d  .eh_frame	0000000000000000              .eh_frame
0000000000006ce0 l    d  .init_array	0000000000000000              .init_array
0000000000006ce8 l    d  .fini_array	0000000000000000              .fini_array
0000000000006cf0 l    d  .dynamic	0000000000000000              .dynamic
0000000000006ee0 l    d  .got	0000000000000000              .got
0000000000007000 l    d  .data	0000000000000000              .data
0000000000007a80 l    d  .bss	0000000000000000              .bss
0000000000000000 l    d  .comment	0000000000000000              .comment
0000000000000000 l    d  .debug_aranges	0000000000000000              .debug_aranges
0000000000000000 l    d  .debug_info	0000000000000000              .debug_info
0000000000000000 l    d  .debug_abbrev	0000000000000000              .debug_abbrev
0000000000000000 l    d  .debug_line	0000000000000000              .debug_line
0000000000000000 l    d  .debug_str	0000000000000000              .debug_str
0000000000000000 l    d  .debug_loc	0000000000000000              .debug_loc
0000000000000000 l    df *ABS*	0000000000000000              crtstuff.c
00000000000023f0 l     F .text	0000000000000000              deregister_tm_clones
0000000000002420 l     F .text	0000000000000000              register_tm_clones
0000000000002460 l     F .text	0000000000000000              __do_global_dtors_aux
0000000000007aa8 l     O .bss	0000000000000001              completed.8061
0000000000006ce8 l     O .fini_array	0000000000000000              __do_global_dtors_aux_fini_array_entry
00000000000024a0 l     F .text	0000000000000000              frame_dummy
0000000000006ce0 l     O .init_array	0000000000000000              __frame_dummy_init_array_entry
0000000000000000 l    df *ABS*	0000000000000000              bomb.c
0000000000000000 l    df *ABS*	0000000000000000              phases.c
0000000000004200 l     O .rodata	0000000000000040              array.3472
0000000000000000 l    df *ABS*	0000000000000000              support.c
0000000000002c85 l     F .text	0000000000000062              sig_handler
0000000000000000 l    df *ABS*	0000000000000000              driverlib.c
0000000000003265 l     F .text	00000000000000c9              rio_readlineb
0000000000000000 l    df *ABS*	0000000000000000              crtstuff.c
00000000000050c4 l     O .eh_frame	0000000000000000              __FRAME_END__
0000000000000000 l    df *ABS*	0000000000000000              
0000000000006ce8 l       .init_array	0000000000000000              __init_array_end
0000000000006cf0 l     O .dynamic	0000000000000000              _DYNAMIC
0000000000006ce0 l       .init_array	0000000000000000              __init_array_start
0000000000004a04 l       .eh_frame_hdr	0000000000000000              __GNU_EH_FRAME_HDR
0000000000006ee0 l     O .got	0000000000000000              _GLOBAL_OFFSET_TABLE_
0000000000002000 l     F .init	0000000000000000              _init
0000000000003e60 g     F .text	0000000000000005              __libc_csu_fini
0000000000002ee8 g     F .text	0000000000000052              skip
0000000000000000       F *UND*	0000000000000000              getenv@@GLIBC_2.2.5
00000000000031f5 g     F .text	000000000000003a              phase_defused
00000000000075b0 g     O .data	0000000000000018              n31
0000000000000000       F *UND*	0000000000000000              strcasecmp@@GLIBC_2.2.5
0000000000000000       F *UND*	0000000000000000              __errno_location@@GLIBC_2.2.5
0000000000000000  w      *UND*	0000000000000000              _ITM_deregisterTMCloneTable
0000000000007a80 g     O .bss	0000000000000008              stdout@@GLIBC_2.2.5
0000000000007000  w      .data	0000000000000000              data_start
0000000000007ac0 g     O .bss	0000000000000640              input_strings
0000000000000000       F *UND*	0000000000000000              strcpy@@GLIBC_2.2.5
00000000000075f0 g     O .data	0000000000000018              n33
0000000000000000       F *UND*	0000000000000000              puts@@GLIBC_2.2.5
0000000000007a90 g     O .bss	0000000000000008              stdin@@GLIBC_2.2.5
0000000000000000       F *UND*	0000000000000000              write@@GLIBC_2.2.5
0000000000007a80 g       .data	0000000000000000              _edata
0000000000007080 g     O .data	0000000000000018              n44
00000000000070c0 g     O .data	0000000000000018              n46
0000000000007040 g     O .data	0000000000000018              n42
0000000000007100 g     O .data	0000000000000018              n48
0000000000003e68 g     F .fini	0000000000000000              .hidden _fini
0000000000000000       F *UND*	0000000000000000              __stack_chk_fail@@GLIBC_2.4
0000000000007aac g     O .bss	0000000000000004              num_input_strings
000000000000280e g     F .text	0000000000000079              phase_5
0000000000002ea4 g     F .text	0000000000000005              initialize_bomb_solve
000000000000291e g     F .text	0000000000000161              phase_7
0000000000002ea9 g     F .text	000000000000003f              blank_line
0000000000002c41 g     F .text	0000000000000044              phase_9
000000000000332e g     F .text	0000000000000822              submitr
00000000000026ed g     F .text	000000000000007d              phase_3
0000000000002661 g     F .text	0000000000000068              phase_1
0000000000002ce7 g     F .text	000000000000002d              invalid_phase
0000000000003b7e g     F .text	00000000000001f5              init_driver
0000000000000000       F *UND*	0000000000000000              alarm@@GLIBC_2.2.5
0000000000000000       F *UND*	0000000000000000              close@@GLIBC_2.2.5
0000000000007650 g     O .data	0000000000000010              node3
0000000000000000       F *UND*	0000000000000000              read@@GLIBC_2.2.5
0000000000000000       F *UND*	0000000000000000              __libc_start_main@@GLIBC_2.2.5
0000000000000000       F *UND*	0000000000000000              fgets@@GLIBC_2.2.5
0000000000003026 g     F .text	0000000000000042              explode_bomb
0000000000007630 g     O .data	0000000000000010              node1
0000000000007000 g       .data	0000000000000000              __data_start
0000000000000000       F *UND*	0000000000000000              signal@@GLIBC_2.2.5
0000000000000000       F *UND*	0000000000000000              gethostbyname@@GLIBC_2.2.5
0000000000007670 g     O .data	0000000000000010              node5
0000000000000000       F *UND*	0000000000000000              __memmove_chk@@GLIBC_2.3.4
0000000000000000  w      *UND*	0000000000000000              __gmon_start__
0000000000000000       F *UND*	0000000000000000              strtol@@GLIBC_2.2.5
0000000000007008 g     O .data	0000000000000000              .hidden __dso_handle
0000000000002c00 g     F .text	0000000000000041              fun9
0000000000004000 g     O .rodata	0000000000000004              _IO_stdin_used
0000000000007590 g     O .data	0000000000000018              n22
0000000000007680 g     O .data	0000000000000400              host_table
0000000000007550 g     O .data	0000000000000018              n1
00000000000027d8 g     F .text	0000000000000036              fun5
0000000000002d14 g     F .text	0000000000000021              string_length
0000000000003df0 g     F .text	0000000000000065              __libc_csu_init
0000000000000000       F *UND*	0000000000000000              malloc@@GLIBC_2.2.5
0000000000000000       F *UND*	0000000000000000              fflush@@GLIBC_2.2.5
0000000000000000       F *UND*	0000000000000000              __isoc99_sscanf@@GLIBC_2.7
0000000000007610 g     O .data	0000000000000018              n34
00000000000075d0 g     O .data	0000000000000018              n32
0000000000008150 g       .bss	0000000000000000              _end
00000000000023c0 g     F .text	000000000000002f              _start
0000000000007ab0 g     O .bss	0000000000000008              infile
000000000000322f g     F .text	0000000000000036              sigalrm_handler
0000000000003b50 g     F .text	000000000000002e              init_timeout
0000000000007a80 g       .bss	0000000000000000              __bss_start
0000000000007140 g     O .data	0000000000000400              userid
00000000000024a9 g     F .text	00000000000001b8              main
0000000000000000       F *UND*	0000000000000000              __printf_chk@@GLIBC_2.3.4
00000000000070e0 g     O .data	0000000000000018              n47
0000000000007060 g     O .data	0000000000000018              n43
0000000000007020 g     O .data	0000000000000018              n41
00000000000030ad g     F .text	0000000000000148              read_line
00000000000070a0 g     O .data	0000000000000018              n45
0000000000002d35 g     F .text	0000000000000060              strings_not_equal
000000000000276a g     F .text	000000000000006e              phase_4
0000000000002a7f g     F .text	0000000000000181              phase_8
0000000000000000       F *UND*	0000000000000000              fopen@@GLIBC_2.2.5
0000000000002887 g     F .text	0000000000000097              phase_6
0000000000008100 g     O .bss	0000000000000050              scratch
0000000000003d73 g     F .text	000000000000007c              driver_post
0000000000002f3a g     F .text	00000000000000ec              send_msg
00000000000026c9 g     F .text	0000000000000024              phase_2
0000000000000000       F *UND*	0000000000000000              gethostname@@GLIBC_2.2.5
0000000000000000       F *UND*	0000000000000000              exit@@GLIBC_2.2.5
0000000000007540 g     O .data	0000000000000004              bomb_id
0000000000000000       F *UND*	0000000000000000              connect@@GLIBC_2.2.5
0000000000007a80 g     O .data	0000000000000000              .hidden __TMC_END__
0000000000000000       F *UND*	0000000000000000              __fprintf_chk@@GLIBC_2.3.4
0000000000000000  w      *UND*	0000000000000000              _ITM_registerTMCloneTable
0000000000007640 g     O .data	0000000000000010              node2
0000000000007660 g     O .data	0000000000000010              node4
0000000000000000       F *UND*	0000000000000000              sleep@@GLIBC_2.2.5
0000000000007120 g     O .data	0000000000000010              node6
0000000000000000  w    F *UND*	0000000000000000              __cxa_finalize@@GLIBC_2.2.5
0000000000003068 g     F .text	0000000000000045              read_six_numbers
0000000000007570 g     O .data	0000000000000018              n21
0000000000002d95 g     F .text	000000000000010f              initialize_bomb
0000000000000000       F *UND*	0000000000000000              __ctype_b_loc@@GLIBC_2.3
0000000000007aa0 g     O .bss	0000000000000008              stderr@@GLIBC_2.2.5
0000000000000000       F *UND*	0000000000000000              __sprintf_chk@@GLIBC_2.3.4
0000000000000000       F *UND*	0000000000000000              socket@@GLIBC_2.2.5



Disassembly of section .init:

0000000000002000 <_init>:
    2000:	f3 0f 1e fa          	endbr64 
    2004:	48 83 ec 08          	sub    $0x8,%rsp
    2008:	48 8b 05 d9 4f 00 00 	mov    0x4fd9(%rip),%rax        # 6fe8 <__gmon_start__>
    200f:	48 85 c0             	test   %rax,%rax
    2012:	74 02                	je     2016 <_init+0x16>
    2014:	ff d0                	call   *%rax
    2016:	48 83 c4 08          	add    $0x8,%rsp
    201a:	c3                   	ret    

Disassembly of section .plt:

0000000000002020 <.plt>:
    2020:	ff 35 c2 4e 00 00    	push   0x4ec2(%rip)        # 6ee8 <_GLOBAL_OFFSET_TABLE_+0x8>
    2026:	f2 ff 25 c3 4e 00 00 	bnd jmp *0x4ec3(%rip)        # 6ef0 <_GLOBAL_OFFSET_TABLE_+0x10>
    202d:	0f 1f 00             	nopl   (%rax)
    2030:	f3 0f 1e fa          	endbr64 
    2034:	68 00 00 00 00       	push   $0x0
    2039:	f2 e9 e1 ff ff ff    	bnd jmp 2020 <.plt>
    203f:	90                   	nop
    2040:	f3 0f 1e fa          	endbr64 
    2044:	68 01 00 00 00       	push   $0x1
    2049:	f2 e9 d1 ff ff ff    	bnd jmp 2020 <.plt>
    204f:	90                   	nop
    2050:	f3 0f 1e fa          	endbr64 
    2054:	68 02 00 00 00       	push   $0x2
    2059:	f2 e9 c1 ff ff ff    	bnd jmp 2020 <.plt>
    205f:	90                   	nop
    2060:	f3 0f 1e fa          	endbr64 
    2064:	68 03 00 00 00       	push   $0x3
    2069:	f2 e9 b1 ff ff ff    	bnd jmp 2020 <.plt>
    206f:	90                   	nop
    2070:	f3 0f 1e fa          	endbr64 
    2074:	68 04 00 00 00       	push   $0x4
    2079:	f2 e9 a1 ff ff ff    	bnd jmp 2020 <.plt>
    207f:	90                   	nop
    2080:	f3 0f 1e fa          	endbr64 
    2084:	68 05 00 00 00       	push   $0x5
    2089:	f2 e9 91 ff ff ff    	bnd jmp 2020 <.plt>
    208f:	90                   	nop
    2090:	f3 0f 1e fa          	endbr64 
    2094:	68 06 00 00 00       	push   $0x6
    2099:	f2 e9 81 ff ff ff    	bnd jmp 2020 <.plt>
    209f:	90                   	nop
    20a0:	f3 0f 1e fa          	endbr64 
    20a4:	68 07 00 00 00       	push   $0x7
    20a9:	f2 e9 71 ff ff ff    	bnd jmp 2020 <.plt>
    20af:	90                   	nop
    20b0:	f3 0f 1e fa          	endbr64 
    20b4:	68 08 00 00 00       	push   $0x8
    20b9:	f2 e9 61 ff ff ff    	bnd jmp 2020 <.plt>
    20bf:	90                   	nop
    20c0:	f3 0f 1e fa          	endbr64 
    20c4:	68 09 00 00 00       	push   $0x9
    20c9:	f2 e9 51 ff ff ff    	bnd jmp 2020 <.plt>
    20cf:	90                   	nop
    20d0:	f3 0f 1e fa          	endbr64 
    20d4:	68 0a 00 00 00       	push   $0xa
    20d9:	f2 e9 41 ff ff ff    	bnd jmp 2020 <.plt>
    20df:	90                   	nop
    20e0:	f3 0f 1e fa          	endbr64 
    20e4:	68 0b 00 00 00       	push   $0xb
    20e9:	f2 e9 31 ff ff ff    	bnd jmp 2020 <.plt>
    20ef:	90                   	nop
    20f0:	f3 0f 1e fa          	endbr64 
    20f4:	68 0c 00 00 00       	push   $0xc
    20f9:	f2 e9 21 ff ff ff    	bnd jmp 2020 <.plt>
    20ff:	90                   	nop
    2100:	f3 0f 1e fa          	endbr64 
    2104:	68 0d 00 00 00       	push   $0xd
    2109:	f2 e9 11 ff ff ff    	bnd jmp 2020 <.plt>
    210f:	90                   	nop
    2110:	f3 0f 1e fa          	endbr64 
    2114:	68 0e 00 00 00       	push   $0xe
    2119:	f2 e9 01 ff ff ff    	bnd jmp 2020 <.plt>
    211f:	90                   	nop
    2120:	f3 0f 1e fa          	endbr64 
    2124:	68 0f 00 00 00       	push   $0xf
    2129:	f2 e9 f1 fe ff ff    	bnd jmp 2020 <.plt>
    212f:	90                   	nop
    2130:	f3 0f 1e fa          	endbr64 
    2134:	68 10 00 00 00       	push   $0x10
    2139:	f2 e9 e1 fe ff ff    	bnd jmp 2020 <.plt>
    213f:	90                   	nop
    2140:	f3 0f 1e fa          	endbr64 
    2144:	68 11 00 00 00       	push   $0x11
    2149:	f2 e9 d1 fe ff ff    	bnd jmp 2020 <.plt>
    214f:	90                   	nop
    2150:	f3 0f 1e fa          	endbr64 
    2154:	68 12 00 00 00       	push   $0x12
    2159:	f2 e9 c1 fe ff ff    	bnd jmp 2020 <.plt>
    215f:	90                   	nop
    2160:	f3 0f 1e fa          	endbr64 
    2164:	68 13 00 00 00       	push   $0x13
    2169:	f2 e9 b1 fe ff ff    	bnd jmp 2020 <.plt>
    216f:	90                   	nop
    2170:	f3 0f 1e fa          	endbr64 
    2174:	68 14 00 00 00       	push   $0x14
    2179:	f2 e9 a1 fe ff ff    	bnd jmp 2020 <.plt>
    217f:	90                   	nop
    2180:	f3 0f 1e fa          	endbr64 
    2184:	68 15 00 00 00       	push   $0x15
    2189:	f2 e9 91 fe ff ff    	bnd jmp 2020 <.plt>
    218f:	90                   	nop
    2190:	f3 0f 1e fa          	endbr64 
    2194:	68 16 00 00 00       	push   $0x16
    2199:	f2 e9 81 fe ff ff    	bnd jmp 2020 <.plt>
    219f:	90                   	nop
    21a0:	f3 0f 1e fa          	endbr64 
    21a4:	68 17 00 00 00       	push   $0x17
    21a9:	f2 e9 71 fe ff ff    	bnd jmp 2020 <.plt>
    21af:	90                   	nop
    21b0:	f3 0f 1e fa          	endbr64 
    21b4:	68 18 00 00 00       	push   $0x18
    21b9:	f2 e9 61 fe ff ff    	bnd jmp 2020 <.plt>
    21bf:	90                   	nop
    21c0:	f3 0f 1e fa          	endbr64 
    21c4:	68 19 00 00 00       	push   $0x19
    21c9:	f2 e9 51 fe ff ff    	bnd jmp 2020 <.plt>
    21cf:	90                   	nop
    21d0:	f3 0f 1e fa          	endbr64 
    21d4:	68 1a 00 00 00       	push   $0x1a
    21d9:	f2 e9 41 fe ff ff    	bnd jmp 2020 <.plt>
    21df:	90                   	nop
    21e0:	f3 0f 1e fa          	endbr64 
    21e4:	68 1b 00 00 00       	push   $0x1b
    21e9:	f2 e9 31 fe ff ff    	bnd jmp 2020 <.plt>
    21ef:	90                   	nop

Disassembly of section .plt.got:

00000000000021f0 <__cxa_finalize@plt>:
    21f0:	f3 0f 1e fa          	endbr64 
    21f4:	f2 ff 25 fd 4d 00 00 	bnd jmp *0x4dfd(%rip)        # 6ff8 <__cxa_finalize@GLIBC_2.2.5>
    21fb:	0f 1f 44 00 00       	nopl   0x0(%rax,%rax,1)

Disassembly of section .plt.sec:

0000000000002200 <getenv@plt>:
    2200:	f3 0f 1e fa          	endbr64 
    2204:	f2 ff 25 ed 4c 00 00 	bnd jmp *0x4ced(%rip)        # 6ef8 <getenv@GLIBC_2.2.5>
    220b:	0f 1f 44 00 00       	nopl   0x0(%rax,%rax,1)

0000000000002210 <strcasecmp@plt>:
    2210:	f3 0f 1e fa          	endbr64 
    2214:	f2 ff 25 e5 4c 00 00 	bnd jmp *0x4ce5(%rip)        # 6f00 <strcasecmp@GLIBC_2.2.5>
    221b:	0f 1f 44 00 00       	nopl   0x0(%rax,%rax,1)

0000000000002220 <__errno_location@plt>:
    2220:	f3 0f 1e fa          	endbr64 
    2224:	f2 ff 25 dd 4c 00 00 	bnd jmp *0x4cdd(%rip)        # 6f08 <__errno_location@GLIBC_2.2.5>
    222b:	0f 1f 44 00 00       	nopl   0x0(%rax,%rax,1)

0000000000002230 <strcpy@plt>:
    2230:	f3 0f 1e fa          	endbr64 
    2234:	f2 ff 25 d5 4c 00 00 	bnd jmp *0x4cd5(%rip)        # 6f10 <strcpy@GLIBC_2.2.5>
    223b:	0f 1f 44 00 00       	nopl   0x0(%rax,%rax,1)

0000000000002240 <puts@plt>:
    2240:	f3 0f 1e fa          	endbr64 
    2244:	f2 ff 25 cd 4c 00 00 	bnd jmp *0x4ccd(%rip)        # 6f18 <puts@GLIBC_2.2.5>
    224b:	0f 1f 44 00 00       	nopl   0x0(%rax,%rax,1)

0000000000002250 <write@plt>:
    2250:	f3 0f 1e fa          	endbr64 
    2254:	f2 ff 25 c5 4c 00 00 	bnd jmp *0x4cc5(%rip)        # 6f20 <write@GLIBC_2.2.5>
    225b:	0f 1f 44 00 00       	nopl   0x0(%rax,%rax,1)

0000000000002260 <__stack_chk_fail@plt>:
    2260:	f3 0f 1e fa          	endbr64 
    2264:	f2 ff 25 bd 4c 00 00 	bnd jmp *0x4cbd(%rip)        # 6f28 <__stack_chk_fail@GLIBC_2.4>
    226b:	0f 1f 44 00 00       	nopl   0x0(%rax,%rax,1)

0000000000002270 <alarm@plt>:
    2270:	f3 0f 1e fa          	endbr64 
    2274:	f2 ff 25 b5 4c 00 00 	bnd jmp *0x4cb5(%rip)        # 6f30 <alarm@GLIBC_2.2.5>
    227b:	0f 1f 44 00 00       	nopl   0x0(%rax,%rax,1)

0000000000002280 <close@plt>:
    2280:	f3 0f 1e fa          	endbr64 
    2284:	f2 ff 25 ad 4c 00 00 	bnd jmp *0x4cad(%rip)        # 6f38 <close@GLIBC_2.2.5>
    228b:	0f 1f 44 00 00       	nopl   0x0(%rax,%rax,1)

0000000000002290 <read@plt>:
    2290:	f3 0f 1e fa          	endbr64 
    2294:	f2 ff 25 a5 4c 00 00 	bnd jmp *0x4ca5(%rip)        # 6f40 <read@GLIBC_2.2.5>
    229b:	0f 1f 44 00 00       	nopl   0x0(%rax,%rax,1)

00000000000022a0 <fgets@plt>:
    22a0:	f3 0f 1e fa          	endbr64 
    22a4:	f2 ff 25 9d 4c 00 00 	bnd jmp *0x4c9d(%rip)        # 6f48 <fgets@GLIBC_2.2.5>
    22ab:	0f 1f 44 00 00       	nopl   0x0(%rax,%rax,1)

00000000000022b0 <signal@plt>:
    22b0:	f3 0f 1e fa          	endbr64 
    22b4:	f2 ff 25 95 4c 00 00 	bnd jmp *0x4c95(%rip)        # 6f50 <signal@GLIBC_2.2.5>
    22bb:	0f 1f 44 00 00       	nopl   0x0(%rax,%rax,1)

00000000000022c0 <gethostbyname@plt>:
    22c0:	f3 0f 1e fa          	endbr64 
    22c4:	f2 ff 25 8d 4c 00 00 	bnd jmp *0x4c8d(%rip)        # 6f58 <gethostbyname@GLIBC_2.2.5>
    22cb:	0f 1f 44 00 00       	nopl   0x0(%rax,%rax,1)

00000000000022d0 <__memmove_chk@plt>:
    22d0:	f3 0f 1e fa          	endbr64 
    22d4:	f2 ff 25 85 4c 00 00 	bnd jmp *0x4c85(%rip)        # 6f60 <__memmove_chk@GLIBC_2.3.4>
    22db:	0f 1f 44 00 00       	nopl   0x0(%rax,%rax,1)

00000000000022e0 <strtol@plt>:
    22e0:	f3 0f 1e fa          	endbr64 
    22e4:	f2 ff 25 7d 4c 00 00 	bnd jmp *0x4c7d(%rip)        # 6f68 <strtol@GLIBC_2.2.5>
    22eb:	0f 1f 44 00 00       	nopl   0x0(%rax,%rax,1)

00000000000022f0 <malloc@plt>:
    22f0:	f3 0f 1e fa          	endbr64 
    22f4:	f2 ff 25 75 4c 00 00 	bnd jmp *0x4c75(%rip)        # 6f70 <malloc@GLIBC_2.2.5>
    22fb:	0f 1f 44 00 00       	nopl   0x0(%rax,%rax,1)

0000000000002300 <fflush@plt>:
    2300:	f3 0f 1e fa          	endbr64 
    2304:	f2 ff 25 6d 4c 00 00 	bnd jmp *0x4c6d(%rip)        # 6f78 <fflush@GLIBC_2.2.5>
    230b:	0f 1f 44 00 00       	nopl   0x0(%rax,%rax,1)

0000000000002310 <__isoc99_sscanf@plt>:
    2310:	f3 0f 1e fa          	endbr64 
    2314:	f2 ff 25 65 4c 00 00 	bnd jmp *0x4c65(%rip)        # 6f80 <__isoc99_sscanf@GLIBC_2.7>
    231b:	0f 1f 44 00 00       	nopl   0x0(%rax,%rax,1)

0000000000002320 <__printf_chk@plt>:
    2320:	f3 0f 1e fa          	endbr64 
    2324:	f2 ff 25 5d 4c 00 00 	bnd jmp *0x4c5d(%rip)        # 6f88 <__printf_chk@GLIBC_2.3.4>
    232b:	0f 1f 44 00 00       	nopl   0x0(%rax,%rax,1)

0000000000002330 <fopen@plt>:
    2330:	f3 0f 1e fa          	endbr64 
    2334:	f2 ff 25 55 4c 00 00 	bnd jmp *0x4c55(%rip)        # 6f90 <fopen@GLIBC_2.2.5>
    233b:	0f 1f 44 00 00       	nopl   0x0(%rax,%rax,1)

0000000000002340 <gethostname@plt>:
    2340:	f3 0f 1e fa          	endbr64 
    2344:	f2 ff 25 4d 4c 00 00 	bnd jmp *0x4c4d(%rip)        # 6f98 <gethostname@GLIBC_2.2.5>
    234b:	0f 1f 44 00 00       	nopl   0x0(%rax,%rax,1)

0000000000002350 <exit@plt>:
    2350:	f3 0f 1e fa          	endbr64 
    2354:	f2 ff 25 45 4c 00 00 	bnd jmp *0x4c45(%rip)        # 6fa0 <exit@GLIBC_2.2.5>
    235b:	0f 1f 44 00 00       	nopl   0x0(%rax,%rax,1)

0000000000002360 <connect@plt>:
    2360:	f3 0f 1e fa          	endbr64 
    2364:	f2 ff 25 3d 4c 00 00 	bnd jmp *0x4c3d(%rip)        # 6fa8 <connect@GLIBC_2.2.5>
    236b:	0f 1f 44 00 00       	nopl   0x0(%rax,%rax,1)

0000000000002370 <__fprintf_chk@plt>:
    2370:	f3 0f 1e fa          	endbr64 
    2374:	f2 ff 25 35 4c 00 00 	bnd jmp *0x4c35(%rip)        # 6fb0 <__fprintf_chk@GLIBC_2.3.4>
    237b:	0f 1f 44 00 00       	nopl   0x0(%rax,%rax,1)

0000000000002380 <sleep@plt>:
    2380:	f3 0f 1e fa          	endbr64 
    2384:	f2 ff 25 2d 4c 00 00 	bnd jmp *0x4c2d(%rip)        # 6fb8 <sleep@GLIBC_2.2.5>
    238b:	0f 1f 44 00 00       	nopl   0x0(%rax,%rax,1)

0000000000002390 <__ctype_b_loc@plt>:
    2390:	f3 0f 1e fa          	endbr64 
    2394:	f2 ff 25 25 4c 00 00 	bnd jmp *0x4c25(%rip)        # 6fc0 <__ctype_b_loc@GLIBC_2.3>
    239b:	0f 1f 44 00 00       	nopl   0x0(%rax,%rax,1)

00000000000023a0 <__sprintf_chk@plt>:
    23a0:	f3 0f 1e fa          	endbr64 
    23a4:	f2 ff 25 1d 4c 00 00 	bnd jmp *0x4c1d(%rip)        # 6fc8 <__sprintf_chk@GLIBC_2.3.4>
    23ab:	0f 1f 44 00 00       	nopl   0x0(%rax,%rax,1)

00000000000023b0 <socket@plt>:
    23b0:	f3 0f 1e fa          	endbr64 
    23b4:	f2 ff 25 15 4c 00 00 	bnd jmp *0x4c15(%rip)        # 6fd0 <socket@GLIBC_2.2.5>
    23bb:	0f 1f 44 00 00       	nopl   0x0(%rax,%rax,1)

Disassembly of section .text:

00000000000023c0 <_start>:
    23c0:	f3 0f 1e fa          	endbr64 
    23c4:	31 ed                	xor    %ebp,%ebp
    23c6:	49 89 d1             	mov    %rdx,%r9
    23c9:	5e                   	pop    %rsi
    23ca:	48 89 e2             	mov    %rsp,%rdx
    23cd:	48 83 e4 f0          	and    $0xfffffffffffffff0,%rsp
    23d1:	50                   	push   %rax
    23d2:	54                   	push   %rsp
    23d3:	4c 8d 05 86 1a 00 00 	lea    0x1a86(%rip),%r8        # 3e60 <__libc_csu_fini>
    23da:	48 8d 0d 0f 1a 00 00 	lea    0x1a0f(%rip),%rcx        # 3df0 <__libc_csu_init>
    23e1:	48 8d 3d c1 00 00 00 	lea    0xc1(%rip),%rdi        # 24a9 <main>
    23e8:	ff 15 f2 4b 00 00    	call   *0x4bf2(%rip)        # 6fe0 <__libc_start_main@GLIBC_2.2.5>
    23ee:	f4                   	hlt    
    23ef:	90                   	nop

00000000000023f0 <deregister_tm_clones>:
    23f0:	48 8d 3d 89 56 00 00 	lea    0x5689(%rip),%rdi        # 7a80 <stdout@GLIBC_2.2.5>
    23f7:	48 8d 05 82 56 00 00 	lea    0x5682(%rip),%rax        # 7a80 <stdout@GLIBC_2.2.5>
    23fe:	48 39 f8             	cmp    %rdi,%rax
    2401:	74 15                	je     2418 <deregister_tm_clones+0x28>
    2403:	48 8b 05 ce 4b 00 00 	mov    0x4bce(%rip),%rax        # 6fd8 <_ITM_deregisterTMCloneTable>
    240a:	48 85 c0             	test   %rax,%rax
    240d:	74 09                	je     2418 <deregister_tm_clones+0x28>
    240f:	ff e0                	jmp    *%rax
    2411:	0f 1f 80 00 00 00 00 	nopl   0x0(%rax)
    2418:	c3                   	ret    
    2419:	0f 1f 80 00 00 00 00 	nopl   0x0(%rax)

0000000000002420 <register_tm_clones>:
    2420:	48 8d 3d 59 56 00 00 	lea    0x5659(%rip),%rdi        # 7a80 <stdout@GLIBC_2.2.5>
    2427:	48 8d 35 52 56 00 00 	lea    0x5652(%rip),%rsi        # 7a80 <stdout@GLIBC_2.2.5>
    242e:	48 29 fe             	sub    %rdi,%rsi
    2431:	48 89 f0             	mov    %rsi,%rax
    2434:	48 c1 ee 3f          	shr    $0x3f,%rsi
    2438:	48 c1 f8 03          	sar    $0x3,%rax
    243c:	48 01 c6             	add    %rax,%rsi
    243f:	48 d1 fe             	sar    %rsi
    2442:	74 14                	je     2458 <register_tm_clones+0x38>
    2444:	48 8b 05 a5 4b 00 00 	mov    0x4ba5(%rip),%rax        # 6ff0 <_ITM_registerTMCloneTable>
    244b:	48 85 c0             	test   %rax,%rax
    244e:	74 08                	je     2458 <register_tm_clones+0x38>
    2450:	ff e0                	jmp    *%rax
    2452:	66 0f 1f 44 00 00    	nopw   0x0(%rax,%rax,1)
    2458:	c3                   	ret    
    2459:	0f 1f 80 00 00 00 00 	nopl   0x0(%rax)

0000000000002460 <__do_global_dtors_aux>:
    2460:	f3 0f 1e fa          	endbr64 
    2464:	80 3d 3d 56 00 00 00 	cmpb   $0x0,0x563d(%rip)        # 7aa8 <completed.8061>
    246b:	75 2b                	jne    2498 <__do_global_dtors_aux+0x38>
    246d:	55                   	push   %rbp
    246e:	48 83 3d 82 4b 00 00 	cmpq   $0x0,0x4b82(%rip)        # 6ff8 <__cxa_finalize@GLIBC_2.2.5>
    2475:	00 
    2476:	48 89 e5             	mov    %rsp,%rbp
    2479:	74 0c                	je     2487 <__do_global_dtors_aux+0x27>
    247b:	48 8b 3d 86 4b 00 00 	mov    0x4b86(%rip),%rdi        # 7008 <__dso_handle>
    2482:	e8 69 fd ff ff       	call   21f0 <__cxa_finalize@plt>
    2487:	e8 64 ff ff ff       	call   23f0 <deregister_tm_clones>
    248c:	c6 05 15 56 00 00 01 	movb   $0x1,0x5615(%rip)        # 7aa8 <completed.8061>
    2493:	5d                   	pop    %rbp
    2494:	c3                   	ret    
    2495:	0f 1f 00             	nopl   (%rax)
    2498:	c3                   	ret    
    2499:	0f 1f 80 00 00 00 00 	nopl   0x0(%rax)

00000000000024a0 <frame_dummy>:
    24a0:	f3 0f 1e fa          	endbr64 
    24a4:	e9 77 ff ff ff       	jmp    2420 <register_tm_clones>

00000000000024a9 <main>:
    24a9:	f3 0f 1e fa          	endbr64 
    24ad:	53                   	push   %rbx
    24ae:	83 ff 01             	cmp    $0x1,%edi
    24b1:	0f 84 52 01 00 00    	je     2609 <main+0x160>
    24b7:	48 89 f3             	mov    %rsi,%rbx
    24ba:	83 ff 02             	cmp    $0x2,%edi
    24bd:	0f 85 7b 01 00 00    	jne    263e <main+0x195>
    24c3:	48 8b 7e 08          	mov    0x8(%rsi),%rdi
    24c7:	48 8d 35 36 1b 00 00 	lea    0x1b36(%rip),%rsi        # 4004 <_IO_stdin_used+0x4>
    24ce:	e8 5d fe ff ff       	call   2330 <fopen@plt>
    24d3:	48 89 05 d6 55 00 00 	mov    %rax,0x55d6(%rip)        # 7ab0 <infile>
    24da:	48 85 c0             	test   %rax,%rax
    24dd:	0f 84 39 01 00 00    	je     261c <main+0x173>
    24e3:	e8 ad 08 00 00       	call   2d95 <initialize_bomb>
    24e8:	48 8d 3d a9 1b 00 00 	lea    0x1ba9(%rip),%rdi        # 4098 <_IO_stdin_used+0x98>
    24ef:	e8 4c fd ff ff       	call   2240 <puts@plt>
    24f4:	48 8d 3d dd 1b 00 00 	lea    0x1bdd(%rip),%rdi        # 40d8 <_IO_stdin_used+0xd8>
    24fb:	e8 40 fd ff ff       	call   2240 <puts@plt>
    2500:	e8 a8 0b 00 00       	call   30ad <read_line>
    2505:	48 89 c7             	mov    %rax,%rdi
    2508:	e8 54 01 00 00       	call   2661 <phase_1>
    250d:	e8 e3 0c 00 00       	call   31f5 <phase_defused>
    2512:	48 8d 3d ef 1b 00 00 	lea    0x1bef(%rip),%rdi        # 4108 <_IO_stdin_used+0x108>
    2519:	e8 22 fd ff ff       	call   2240 <puts@plt>
    251e:	e8 8a 0b 00 00       	call   30ad <read_line>
    2523:	48 89 c7             	mov    %rax,%rdi
    2526:	e8 9e 01 00 00       	call   26c9 <phase_2>
    252b:	e8 c5 0c 00 00       	call   31f5 <phase_defused>
    2530:	48 8d 3d 06 1b 00 00 	lea    0x1b06(%rip),%rdi        # 403d <_IO_stdin_used+0x3d>
    2537:	e8 04 fd ff ff       	call   2240 <puts@plt>
    253c:	e8 6c 0b 00 00       	call   30ad <read_line>
    2541:	48 89 c7             	mov    %rax,%rdi
    2544:	e8 a4 01 00 00       	call   26ed <phase_3>
    2549:	e8 a7 0c 00 00       	call   31f5 <phase_defused>
    254e:	48 8d 3d 06 1b 00 00 	lea    0x1b06(%rip),%rdi        # 405b <_IO_stdin_used+0x5b>
    2555:	e8 e6 fc ff ff       	call   2240 <puts@plt>
    255a:	e8 4e 0b 00 00       	call   30ad <read_line>
    255f:	48 89 c7             	mov    %rax,%rdi
    2562:	e8 03 02 00 00       	call   276a <phase_4>
    2567:	e8 89 0c 00 00       	call   31f5 <phase_defused>
    256c:	48 8d 3d c5 1b 00 00 	lea    0x1bc5(%rip),%rdi        # 4138 <_IO_stdin_used+0x138>
    2573:	e8 c8 fc ff ff       	call   2240 <puts@plt>
    2578:	e8 30 0b 00 00       	call   30ad <read_line>
    257d:	48 89 c7             	mov    %rax,%rdi
    2580:	e8 89 02 00 00       	call   280e <phase_5>
    2585:	e8 6b 0c 00 00       	call   31f5 <phase_defused>
    258a:	48 8d 3d db 1a 00 00 	lea    0x1adb(%rip),%rdi        # 406c <_IO_stdin_used+0x6c>
    2591:	e8 aa fc ff ff       	call   2240 <puts@plt>
    2596:	e8 12 0b 00 00       	call   30ad <read_line>
    259b:	48 89 c7             	mov    %rax,%rdi
    259e:	e8 e4 02 00 00       	call   2887 <phase_6>
    25a3:	e8 4d 0c 00 00       	call   31f5 <phase_defused>
    25a8:	48 8d 3d b1 1b 00 00 	lea    0x1bb1(%rip),%rdi        # 4160 <_IO_stdin_used+0x160>
    25af:	e8 8c fc ff ff       	call   2240 <puts@plt>
    25b4:	e8 f4 0a 00 00       	call   30ad <read_line>
    25b9:	48 89 c7             	mov    %rax,%rdi
    25bc:	e8 5d 03 00 00       	call   291e <phase_7>
    25c1:	e8 2f 0c 00 00       	call   31f5 <phase_defused>
    25c6:	48 8d 3d b3 1b 00 00 	lea    0x1bb3(%rip),%rdi        # 4180 <_IO_stdin_used+0x180>
    25cd:	e8 6e fc ff ff       	call   2240 <puts@plt>
    25d2:	e8 d6 0a 00 00       	call   30ad <read_line>
    25d7:	48 89 c7             	mov    %rax,%rdi
    25da:	e8 a0 04 00 00       	call   2a7f <phase_8>
    25df:	e8 11 0c 00 00       	call   31f5 <phase_defused>
    25e4:	48 8d 3d 9f 1a 00 00 	lea    0x1a9f(%rip),%rdi        # 408a <_IO_stdin_used+0x8a>
    25eb:	e8 50 fc ff ff       	call   2240 <puts@plt>
    25f0:	e8 b8 0a 00 00       	call   30ad <read_line>
    25f5:	48 89 c7             	mov    %rax,%rdi
    25f8:	e8 44 06 00 00       	call   2c41 <phase_9>
    25fd:	e8 f3 0b 00 00       	call   31f5 <phase_defused>
    2602:	b8 00 00 00 00       	mov    $0x0,%eax
    2607:	5b                   	pop    %rbx
    2608:	c3                   	ret    
    2609:	48 8b 05 80 54 00 00 	mov    0x5480(%rip),%rax        # 7a90 <stdin@GLIBC_2.2.5>
    2610:	48 89 05 99 54 00 00 	mov    %rax,0x5499(%rip)        # 7ab0 <infile>
    2617:	e9 c7 fe ff ff       	jmp    24e3 <main+0x3a>
    261c:	48 8b 4b 08          	mov    0x8(%rbx),%rcx
    2620:	48 8b 13             	mov    (%rbx),%rdx
    2623:	48 8d 35 dc 19 00 00 	lea    0x19dc(%rip),%rsi        # 4006 <_IO_stdin_used+0x6>
    262a:	bf 01 00 00 00       	mov    $0x1,%edi
    262f:	e8 ec fc ff ff       	call   2320 <__printf_chk@plt>
    2634:	bf 08 00 00 00       	mov    $0x8,%edi
    2639:	e8 12 fd ff ff       	call   2350 <exit@plt>
    263e:	48 8b 16             	mov    (%rsi),%rdx
    2641:	48 8d 35 db 19 00 00 	lea    0x19db(%rip),%rsi        # 4023 <_IO_stdin_used+0x23>
    2648:	bf 01 00 00 00       	mov    $0x1,%edi
    264d:	b8 00 00 00 00       	mov    $0x0,%eax
    2652:	e8 c9 fc ff ff       	call   2320 <__printf_chk@plt>
    2657:	bf 08 00 00 00       	mov    $0x8,%edi
    265c:	e8 ef fc ff ff       	call   2350 <exit@plt>

0000000000002661 <phase_1>:
    2661:	f3 0f 1e fa          	endbr64 
    2665:	48 83 ec 18          	sub    $0x18,%rsp
    2669:	64 48 8b 04 25 28 00 	mov    %fs:0x28,%rax
    2670:	00 00 
    2672:	48 89 44 24 08       	mov    %rax,0x8(%rsp)
    2677:	31 c0                	xor    %eax,%eax
    2679:	c7 44 24 04 00 00 00 	movl   $0x0,0x4(%rsp)
    2680:	00 
    2681:	48 8d 54 24 04       	lea    0x4(%rsp),%rdx
    2686:	48 8d 35 18 1b 00 00 	lea    0x1b18(%rip),%rsi        # 41a5 <_IO_stdin_used+0x1a5>
    268d:	e8 7e fc ff ff       	call   2310 <__isoc99_sscanf@plt>
    2692:	83 f8 01             	cmp    $0x1,%eax
    2695:	75 1f                	jne    26b6 <phase_1+0x55>
    2697:	81 7c 24 04 a0 03 00 	cmpl   $0x3a0,0x4(%rsp)
    269e:	00 
    269f:	75 1c                	jne    26bd <phase_1+0x5c>
    26a1:	48 8b 44 24 08       	mov    0x8(%rsp),%rax
    26a6:	64 48 33 04 25 28 00 	xor    %fs:0x28,%rax
    26ad:	00 00 
    26af:	75 13                	jne    26c4 <phase_1+0x63>
    26b1:	48 83 c4 18          	add    $0x18,%rsp
    26b5:	c3                   	ret    
    26b6:	e8 6b 09 00 00       	call   3026 <explode_bomb>
    26bb:	eb da                	jmp    2697 <phase_1+0x36>
    26bd:	e8 64 09 00 00       	call   3026 <explode_bomb>
    26c2:	eb dd                	jmp    26a1 <phase_1+0x40>
    26c4:	e8 97 fb ff ff       	call   2260 <__stack_chk_fail@plt>

00000000000026c9 <phase_2>:
    26c9:	f3 0f 1e fa          	endbr64 
    26cd:	48 83 ec 08          	sub    $0x8,%rsp
    26d1:	48 8d 35 d0 1a 00 00 	lea    0x1ad0(%rip),%rsi        # 41a8 <_IO_stdin_used+0x1a8>
    26d8:	e8 58 06 00 00       	call   2d35 <strings_not_equal>
    26dd:	85 c0                	test   %eax,%eax
    26df:	75 05                	jne    26e6 <phase_2+0x1d>
    26e1:	48 83 c4 08          	add    $0x8,%rsp
    26e5:	c3                   	ret    
    26e6:	e8 3b 09 00 00       	call   3026 <explode_bomb>
    26eb:	eb f4                	jmp    26e1 <phase_2+0x18>

00000000000026ed <phase_3>:
    26ed:	f3 0f 1e fa          	endbr64 
    26f1:	53                   	push   %rbx
    26f2:	48 89 fb             	mov    %rdi,%rbx
    26f5:	48 8d 3d ac 1a 00 00 	lea    0x1aac(%rip),%rdi        # 41a8 <_IO_stdin_used+0x1a8>
    26fc:	e8 13 06 00 00       	call   2d14 <string_length>
    2701:	8d 78 01             	lea    0x1(%rax),%edi
    2704:	48 63 ff             	movslq %edi,%rdi
    2707:	e8 e4 fb ff ff       	call   22f0 <malloc@plt>
    270c:	48 89 c6             	mov    %rax,%rsi
    270f:	48 b8 59 6f 20 68 6f 	movabs $0x6f79206f68206f59,%rax
    2716:	20 79 6f 
    2719:	48 ba 20 68 6f 2c 20 	movabs $0x702061202c6f6820,%rdx
    2720:	61 20 70 
    2723:	48 89 06             	mov    %rax,(%rsi)
    2726:	48 89 56 08          	mov    %rdx,0x8(%rsi)
    272a:	48 b8 69 72 61 74 65 	movabs $0x2073276574617269,%rax
    2731:	27 73 20 
    2734:	48 ba 6c 69 66 65 20 	movabs $0x726f66206566696c,%rdx
    273b:	66 6f 72 
    273e:	48 89 46 10          	mov    %rax,0x10(%rsi)
    2742:	48 89 56 18          	mov    %rdx,0x18(%rsi)
    2746:	c7 46 20 20 6d 65 2e 	movl   $0x2e656d20,0x20(%rsi)
    274d:	c6 46 24 00          	movb   $0x0,0x24(%rsi)
    2751:	c6 46 06 62          	movb   $0x62,0x6(%rsi)
    2755:	48 89 df             	mov    %rbx,%rdi
    2758:	e8 d8 05 00 00       	call   2d35 <strings_not_equal>
    275d:	85 c0                	test   %eax,%eax
    275f:	75 02                	jne    2763 <phase_3+0x76>
    2761:	5b                   	pop    %rbx
    2762:	c3                   	ret    
    2763:	e8 be 08 00 00       	call   3026 <explode_bomb>
    2768:	eb f7                	jmp    2761 <phase_3+0x74>

000000000000276a <phase_4>:
    276a:	f3 0f 1e fa          	endbr64 
    276e:	55                   	push   %rbp
    276f:	53                   	push   %rbx
    2770:	48 83 ec 28          	sub    $0x28,%rsp
    2774:	64 48 8b 04 25 28 00 	mov    %fs:0x28,%rax
    277b:	00 00 
    277d:	48 89 44 24 18       	mov    %rax,0x18(%rsp)
    2782:	31 c0                	xor    %eax,%eax
    2784:	48 89 e6             	mov    %rsp,%rsi
    2787:	e8 dc 08 00 00       	call   3068 <read_six_numbers>
    278c:	83 3c 24 04          	cmpl   $0x4,(%rsp)
    2790:	75 0a                	jne    279c <phase_4+0x32>
    2792:	48 89 e3             	mov    %rsp,%rbx
    2795:	48 8d 6c 24 14       	lea    0x14(%rsp),%rbp
    279a:	eb 15                	jmp    27b1 <phase_4+0x47>
    279c:	e8 85 08 00 00       	call   3026 <explode_bomb>
    27a1:	eb ef                	jmp    2792 <phase_4+0x28>
    27a3:	e8 7e 08 00 00       	call   3026 <explode_bomb>
    27a8:	48 83 c3 04          	add    $0x4,%rbx
    27ac:	48 39 eb             	cmp    %rbp,%rbx
    27af:	74 0b                	je     27bc <phase_4+0x52>
    27b1:	8b 03                	mov    (%rbx),%eax
    27b3:	01 c0                	add    %eax,%eax
    27b5:	39 43 04             	cmp    %eax,0x4(%rbx)
    27b8:	74 ee                	je     27a8 <phase_4+0x3e>
    27ba:	eb e7                	jmp    27a3 <phase_4+0x39>
    27bc:	48 8b 44 24 18       	mov    0x18(%rsp),%rax
    27c1:	64 48 33 04 25 28 00 	xor    %fs:0x28,%rax
    27c8:	00 00 
    27ca:	75 07                	jne    27d3 <phase_4+0x69>
    27cc:	48 83 c4 28          	add    $0x28,%rsp
    27d0:	5b                   	pop    %rbx
    27d1:	5d                   	pop    %rbp
    27d2:	c3                   	ret    
    27d3:	e8 88 fa ff ff       	call   2260 <__stack_chk_fail@plt>

00000000000027d8 <fun5>:
    27d8:	f3 0f 1e fa          	endbr64 
    27dc:	53                   	push   %rbx
    27dd:	89 d0                	mov    %edx,%eax
    27df:	29 f0                	sub    %esi,%eax
    27e1:	89 c3                	mov    %eax,%ebx
    27e3:	c1 eb 1f             	shr    $0x1f,%ebx
    27e6:	01 c3                	add    %eax,%ebx
    27e8:	d1 fb                	sar    %ebx
    27ea:	01 f3                	add    %esi,%ebx
    27ec:	39 fb                	cmp    %edi,%ebx
    27ee:	7f 06                	jg     27f6 <fun5+0x1e>
    27f0:	7c 10                	jl     2802 <fun5+0x2a>
    27f2:	89 d8                	mov    %ebx,%eax
    27f4:	5b                   	pop    %rbx
    27f5:	c3                   	ret    
    27f6:	8d 53 ff             	lea    -0x1(%rbx),%edx
    27f9:	e8 da ff ff ff       	call   27d8 <fun5>
    27fe:	01 c3                	add    %eax,%ebx
    2800:	eb f0                	jmp    27f2 <fun5+0x1a>
    2802:	8d 73 01             	lea    0x1(%rbx),%esi
    2805:	e8 ce ff ff ff       	call   27d8 <fun5>
    280a:	01 c3                	add    %eax,%ebx
    280c:	eb e4                	jmp    27f2 <fun5+0x1a>

000000000000280e <phase_5>:
    280e:	f3 0f 1e fa          	endbr64 
    2812:	48 83 ec 18          	sub    $0x18,%rsp
    2816:	64 48 8b 04 25 28 00 	mov    %fs:0x28,%rax
    281d:	00 00 
    281f:	48 89 44 24 08       	mov    %rax,0x8(%rsp)
    2824:	31 c0                	xor    %eax,%eax
    2826:	48 8d 4c 24 04       	lea    0x4(%rsp),%rcx
    282b:	48 89 e2             	mov    %rsp,%rdx
    282e:	48 8d 35 d0 1b 00 00 	lea    0x1bd0(%rip),%rsi        # 4405 <array.3472+0x205>
    2835:	e8 d6 fa ff ff       	call   2310 <__isoc99_sscanf@plt>
    283a:	83 f8 02             	cmp    $0x2,%eax
    283d:	75 06                	jne    2845 <phase_5+0x37>
    283f:	83 3c 24 0e          	cmpl   $0xe,(%rsp)
    2843:	76 05                	jbe    284a <phase_5+0x3c>
    2845:	e8 dc 07 00 00       	call   3026 <explode_bomb>
    284a:	ba 0e 00 00 00       	mov    $0xe,%edx
    284f:	be 00 00 00 00       	mov    $0x0,%esi
    2854:	8b 3c 24             	mov    (%rsp),%edi
    2857:	e8 7c ff ff ff       	call   27d8 <fun5>
    285c:	83 f8 07             	cmp    $0x7,%eax
    285f:	75 07                	jne    2868 <phase_5+0x5a>
    2861:	83 7c 24 04 07       	cmpl   $0x7,0x4(%rsp)
    2866:	74 05                	je     286d <phase_5+0x5f>
    2868:	e8 b9 07 00 00       	call   3026 <explode_bomb>
    286d:	48 8b 44 24 08       	mov    0x8(%rsp),%rax
    2872:	64 48 33 04 25 28 00 	xor    %fs:0x28,%rax
    2879:	00 00 
    287b:	75 05                	jne    2882 <phase_5+0x74>
    287d:	48 83 c4 18          	add    $0x18,%rsp
    2881:	c3                   	ret    
    2882:	e8 d9 f9 ff ff       	call   2260 <__stack_chk_fail@plt>

0000000000002887 <phase_6>:
    2887:	f3 0f 1e fa          	endbr64 
    288b:	48 83 ec 18          	sub    $0x18,%rsp
    288f:	64 48 8b 04 25 28 00 	mov    %fs:0x28,%rax
    2896:	00 00 
    2898:	48 89 44 24 08       	mov    %rax,0x8(%rsp)
    289d:	31 c0                	xor    %eax,%eax
    289f:	48 8d 4c 24 04       	lea    0x4(%rsp),%rcx
    28a4:	48 89 e2             	mov    %rsp,%rdx
    28a7:	48 8d 35 57 1b 00 00 	lea    0x1b57(%rip),%rsi        # 4405 <array.3472+0x205>
    28ae:	e8 5d fa ff ff       	call   2310 <__isoc99_sscanf@plt>
    28b3:	83 f8 01             	cmp    $0x1,%eax
    28b6:	7e 5a                	jle    2912 <phase_6+0x8b>
    28b8:	8b 04 24             	mov    (%rsp),%eax
    28bb:	83 e0 0f             	and    $0xf,%eax
    28be:	89 04 24             	mov    %eax,(%rsp)
    28c1:	83 f8 0f             	cmp    $0xf,%eax
    28c4:	74 32                	je     28f8 <phase_6+0x71>
    28c6:	b9 00 00 00 00       	mov    $0x0,%ecx
    28cb:	ba 00 00 00 00       	mov    $0x0,%edx
    28d0:	48 8d 35 29 19 00 00 	lea    0x1929(%rip),%rsi        # 4200 <array.3472>
    28d7:	83 c2 01             	add    $0x1,%edx
    28da:	48 98                	cltq   
    28dc:	8b 04 86             	mov    (%rsi,%rax,4),%eax
    28df:	01 c1                	add    %eax,%ecx
    28e1:	83 f8 0f             	cmp    $0xf,%eax
    28e4:	75 f1                	jne    28d7 <phase_6+0x50>
    28e6:	c7 04 24 0f 00 00 00 	movl   $0xf,(%rsp)
    28ed:	83 fa 0c             	cmp    $0xc,%edx
    28f0:	75 06                	jne    28f8 <phase_6+0x71>
    28f2:	39 4c 24 04          	cmp    %ecx,0x4(%rsp)
    28f6:	74 05                	je     28fd <phase_6+0x76>
    28f8:	e8 29 07 00 00       	call   3026 <explode_bomb>
    28fd:	48 8b 44 24 08       	mov    0x8(%rsp),%rax
    2902:	64 48 33 04 25 28 00 	xor    %fs:0x28,%rax
    2909:	00 00 
    290b:	75 0c                	jne    2919 <phase_6+0x92>
    290d:	48 83 c4 18          	add    $0x18,%rsp
    2911:	c3                   	ret    
    2912:	e8 0f 07 00 00       	call   3026 <explode_bomb>
    2917:	eb 9f                	jmp    28b8 <phase_6+0x31>
    2919:	e8 42 f9 ff ff       	call   2260 <__stack_chk_fail@plt>

000000000000291e <phase_7>:
    291e:	f3 0f 1e fa          	endbr64 
    2922:	41 57                	push   %r15
    2924:	41 56                	push   %r14
    2926:	41 55                	push   %r13
    2928:	41 54                	push   %r12
    292a:	55                   	push   %rbp
    292b:	53                   	push   %rbx
    292c:	48 83 ec 68          	sub    $0x68,%rsp
    2930:	64 48 8b 04 25 28 00 	mov    %fs:0x28,%rax
    2937:	00 00 
    2939:	48 89 44 24 58       	mov    %rax,0x58(%rsp)
    293e:	31 c0                	xor    %eax,%eax
    2940:	49 89 e6             	mov    %rsp,%r14
    2943:	4c 89 f6             	mov    %r14,%rsi
    2946:	e8 1d 07 00 00       	call   3068 <read_six_numbers>
    294b:	4d 89 f4             	mov    %r14,%r12
    294e:	41 bf 01 00 00 00    	mov    $0x1,%r15d
    2954:	49 89 e5             	mov    %rsp,%r13
    2957:	e9 c1 00 00 00       	jmp    2a1d <phase_7+0xff>
    295c:	e8 c5 06 00 00       	call   3026 <explode_bomb>
    2961:	e9 c9 00 00 00       	jmp    2a2f <phase_7+0x111>
    2966:	e8 bb 06 00 00       	call   3026 <explode_bomb>
    296b:	48 83 c3 01          	add    $0x1,%rbx
    296f:	83 fb 05             	cmp    $0x5,%ebx
    2972:	0f 8f 9d 00 00 00    	jg     2a15 <phase_7+0xf7>
    2978:	41 8b 44 9d 00       	mov    0x0(%r13,%rbx,4),%eax
    297d:	39 45 00             	cmp    %eax,0x0(%rbp)
    2980:	75 e9                	jne    296b <phase_7+0x4d>
    2982:	eb e2                	jmp    2966 <phase_7+0x48>
    2984:	49 8d 4c 24 18       	lea    0x18(%r12),%rcx
    2989:	ba 07 00 00 00       	mov    $0x7,%edx
    298e:	89 d0                	mov    %edx,%eax
    2990:	41 2b 04 24          	sub    (%r12),%eax
    2994:	41 89 04 24          	mov    %eax,(%r12)
    2998:	49 83 c4 04          	add    $0x4,%r12
    299c:	4c 39 e1             	cmp    %r12,%rcx
    299f:	75 ed                	jne    298e <phase_7+0x70>
    29a1:	be 00 00 00 00       	mov    $0x0,%esi
    29a6:	8b 0c b4             	mov    (%rsp,%rsi,4),%ecx
    29a9:	b8 01 00 00 00       	mov    $0x1,%eax
    29ae:	48 8d 15 7b 4c 00 00 	lea    0x4c7b(%rip),%rdx        # 7630 <node1>
    29b5:	83 f9 01             	cmp    $0x1,%ecx
    29b8:	7e 0b                	jle    29c5 <phase_7+0xa7>
    29ba:	48 8b 52 08          	mov    0x8(%rdx),%rdx
    29be:	83 c0 01             	add    $0x1,%eax
    29c1:	39 c8                	cmp    %ecx,%eax
    29c3:	75 f5                	jne    29ba <phase_7+0x9c>
    29c5:	48 89 54 f4 20       	mov    %rdx,0x20(%rsp,%rsi,8)
    29ca:	48 83 c6 01          	add    $0x1,%rsi
    29ce:	48 83 fe 06          	cmp    $0x6,%rsi
    29d2:	75 d2                	jne    29a6 <phase_7+0x88>
    29d4:	48 8b 5c 24 20       	mov    0x20(%rsp),%rbx
    29d9:	48 8b 44 24 28       	mov    0x28(%rsp),%rax
    29de:	48 89 43 08          	mov    %rax,0x8(%rbx)
    29e2:	48 8b 54 24 30       	mov    0x30(%rsp),%rdx
    29e7:	48 89 50 08          	mov    %rdx,0x8(%rax)
    29eb:	48 8b 44 24 38       	mov    0x38(%rsp),%rax
    29f0:	48 89 42 08          	mov    %rax,0x8(%rdx)
    29f4:	48 8b 54 24 40       	mov    0x40(%rsp),%rdx
    29f9:	48 89 50 08          	mov    %rdx,0x8(%rax)
    29fd:	48 8b 44 24 48       	mov    0x48(%rsp),%rax
    2a02:	48 89 42 08          	mov    %rax,0x8(%rdx)
    2a06:	48 c7 40 08 00 00 00 	movq   $0x0,0x8(%rax)
    2a0d:	00 
    2a0e:	bd 05 00 00 00       	mov    $0x5,%ebp
    2a13:	eb 35                	jmp    2a4a <phase_7+0x12c>
    2a15:	49 83 c7 01          	add    $0x1,%r15
    2a19:	49 83 c6 04          	add    $0x4,%r14
    2a1d:	4c 89 f5             	mov    %r14,%rbp
    2a20:	41 8b 06             	mov    (%r14),%eax
    2a23:	83 e8 01             	sub    $0x1,%eax
    2a26:	83 f8 05             	cmp    $0x5,%eax
    2a29:	0f 87 2d ff ff ff    	ja     295c <phase_7+0x3e>
    2a2f:	41 83 ff 05          	cmp    $0x5,%r15d
    2a33:	0f 8f 4b ff ff ff    	jg     2984 <phase_7+0x66>
    2a39:	4c 89 fb             	mov    %r15,%rbx
    2a3c:	e9 37 ff ff ff       	jmp    2978 <phase_7+0x5a>
    2a41:	48 8b 5b 08          	mov    0x8(%rbx),%rbx
    2a45:	83 ed 01             	sub    $0x1,%ebp
    2a48:	74 11                	je     2a5b <phase_7+0x13d>
    2a4a:	48 8b 43 08          	mov    0x8(%rbx),%rax
    2a4e:	8b 00                	mov    (%rax),%eax
    2a50:	39 03                	cmp    %eax,(%rbx)
    2a52:	7d ed                	jge    2a41 <phase_7+0x123>
    2a54:	e8 cd 05 00 00       	call   3026 <explode_bomb>
    2a59:	eb e6                	jmp    2a41 <phase_7+0x123>
    2a5b:	48 8b 44 24 58       	mov    0x58(%rsp),%rax
    2a60:	64 48 33 04 25 28 00 	xor    %fs:0x28,%rax
    2a67:	00 00 
    2a69:	75 0f                	jne    2a7a <phase_7+0x15c>
    2a6b:	48 83 c4 68          	add    $0x68,%rsp
    2a6f:	5b                   	pop    %rbx
    2a70:	5d                   	pop    %rbp
    2a71:	41 5c                	pop    %r12
    2a73:	41 5d                	pop    %r13
    2a75:	41 5e                	pop    %r14
    2a77:	41 5f                	pop    %r15
    2a79:	c3                   	ret    
    2a7a:	e8 e1 f7 ff ff       	call   2260 <__stack_chk_fail@plt>

0000000000002a7f <phase_8>:
    2a7f:	f3 0f 1e fa          	endbr64 
    2a83:	48 83 ec 28          	sub    $0x28,%rsp
    2a87:	64 48 8b 04 25 28 00 	mov    %fs:0x28,%rax
    2a8e:	00 00 
    2a90:	48 89 44 24 18       	mov    %rax,0x18(%rsp)
    2a95:	31 c0                	xor    %eax,%eax
    2a97:	48 8d 4c 24 0f       	lea    0xf(%rsp),%rcx
    2a9c:	48 8d 54 24 10       	lea    0x10(%rsp),%rdx
    2aa1:	4c 8d 44 24 14       	lea    0x14(%rsp),%r8
    2aa6:	48 8d 35 f2 16 00 00 	lea    0x16f2(%rip),%rsi        # 419f <_IO_stdin_used+0x19f>
    2aad:	e8 5e f8 ff ff       	call   2310 <__isoc99_sscanf@plt>
    2ab2:	83 f8 02             	cmp    $0x2,%eax
    2ab5:	7e 20                	jle    2ad7 <phase_8+0x58>
    2ab7:	83 7c 24 10 07       	cmpl   $0x7,0x10(%rsp)
    2abc:	0f 87 0d 01 00 00    	ja     2bcf <phase_8+0x150>
    2ac2:	8b 44 24 10          	mov    0x10(%rsp),%eax
    2ac6:	48 8d 15 13 17 00 00 	lea    0x1713(%rip),%rdx        # 41e0 <_IO_stdin_used+0x1e0>
    2acd:	48 63 04 82          	movslq (%rdx,%rax,4),%rax
    2ad1:	48 01 d0             	add    %rdx,%rax
    2ad4:	3e ff e0             	notrack jmp *%rax
    2ad7:	e8 4a 05 00 00       	call   3026 <explode_bomb>
    2adc:	eb d9                	jmp    2ab7 <phase_8+0x38>
    2ade:	b8 6d 00 00 00       	mov    $0x6d,%eax
    2ae3:	81 7c 24 14 31 02 00 	cmpl   $0x231,0x14(%rsp)
    2aea:	00 
    2aeb:	0f 84 e8 00 00 00    	je     2bd9 <phase_8+0x15a>
    2af1:	e8 30 05 00 00       	call   3026 <explode_bomb>
    2af6:	b8 6d 00 00 00       	mov    $0x6d,%eax
    2afb:	e9 d9 00 00 00       	jmp    2bd9 <phase_8+0x15a>
    2b00:	b8 65 00 00 00       	mov    $0x65,%eax
    2b05:	81 7c 24 14 0d 03 00 	cmpl   $0x30d,0x14(%rsp)
    2b0c:	00 
    2b0d:	0f 84 c6 00 00 00    	je     2bd9 <phase_8+0x15a>
    2b13:	e8 0e 05 00 00       	call   3026 <explode_bomb>
    2b18:	b8 65 00 00 00       	mov    $0x65,%eax
    2b1d:	e9 b7 00 00 00       	jmp    2bd9 <phase_8+0x15a>
    2b22:	b8 6c 00 00 00       	mov    $0x6c,%eax
    2b27:	81 7c 24 14 e7 02 00 	cmpl   $0x2e7,0x14(%rsp)
    2b2e:	00 
    2b2f:	0f 84 a4 00 00 00    	je     2bd9 <phase_8+0x15a>
    2b35:	e8 ec 04 00 00       	call   3026 <explode_bomb>
    2b3a:	b8 6c 00 00 00       	mov    $0x6c,%eax
    2b3f:	e9 95 00 00 00       	jmp    2bd9 <phase_8+0x15a>
    2b44:	b8 79 00 00 00       	mov    $0x79,%eax
    2b49:	81 7c 24 14 7d 02 00 	cmpl   $0x27d,0x14(%rsp)
    2b50:	00 
    2b51:	0f 84 82 00 00 00    	je     2bd9 <phase_8+0x15a>
    2b57:	e8 ca 04 00 00       	call   3026 <explode_bomb>
    2b5c:	b8 79 00 00 00       	mov    $0x79,%eax
    2b61:	eb 76                	jmp    2bd9 <phase_8+0x15a>
    2b63:	b8 75 00 00 00       	mov    $0x75,%eax
    2b68:	81 7c 24 14 b6 00 00 	cmpl   $0xb6,0x14(%rsp)
    2b6f:	00 
    2b70:	74 67                	je     2bd9 <phase_8+0x15a>
    2b72:	e8 af 04 00 00       	call   3026 <explode_bomb>
    2b77:	b8 75 00 00 00       	mov    $0x75,%eax
    2b7c:	eb 5b                	jmp    2bd9 <phase_8+0x15a>
    2b7e:	b8 68 00 00 00       	mov    $0x68,%eax
    2b83:	81 7c 24 14 74 01 00 	cmpl   $0x174,0x14(%rsp)
    2b8a:	00 
    2b8b:	74 4c                	je     2bd9 <phase_8+0x15a>
    2b8d:	e8 94 04 00 00       	call   3026 <explode_bomb>
    2b92:	b8 68 00 00 00       	mov    $0x68,%eax
    2b97:	eb 40                	jmp    2bd9 <phase_8+0x15a>
    2b99:	b8 61 00 00 00       	mov    $0x61,%eax
    2b9e:	81 7c 24 14 d0 03 00 	cmpl   $0x3d0,0x14(%rsp)
    2ba5:	00 
    2ba6:	74 31                	je     2bd9 <phase_8+0x15a>
    2ba8:	e8 79 04 00 00       	call   3026 <explode_bomb>
    2bad:	b8 61 00 00 00       	mov    $0x61,%eax
    2bb2:	eb 25                	jmp    2bd9 <phase_8+0x15a>
    2bb4:	b8 7a 00 00 00       	mov    $0x7a,%eax
    2bb9:	81 7c 24 14 f8 02 00 	cmpl   $0x2f8,0x14(%rsp)
    2bc0:	00 
    2bc1:	74 16                	je     2bd9 <phase_8+0x15a>
    2bc3:	e8 5e 04 00 00       	call   3026 <explode_bomb>
    2bc8:	b8 7a 00 00 00       	mov    $0x7a,%eax
    2bcd:	eb 0a                	jmp    2bd9 <phase_8+0x15a>
    2bcf:	e8 52 04 00 00       	call   3026 <explode_bomb>
    2bd4:	b8 7a 00 00 00       	mov    $0x7a,%eax
    2bd9:	38 44 24 0f          	cmp    %al,0xf(%rsp)
    2bdd:	75 15                	jne    2bf4 <phase_8+0x175>
    2bdf:	48 8b 44 24 18       	mov    0x18(%rsp),%rax
    2be4:	64 48 33 04 25 28 00 	xor    %fs:0x28,%rax
    2beb:	00 00 
    2bed:	75 0c                	jne    2bfb <phase_8+0x17c>
    2bef:	48 83 c4 28          	add    $0x28,%rsp
    2bf3:	c3                   	ret    
    2bf4:	e8 2d 04 00 00       	call   3026 <explode_bomb>
    2bf9:	eb e4                	jmp    2bdf <phase_8+0x160>
    2bfb:	e8 60 f6 ff ff       	call   2260 <__stack_chk_fail@plt>

0000000000002c00 <fun9>:
    2c00:	f3 0f 1e fa          	endbr64 
    2c04:	48 85 ff             	test   %rdi,%rdi
    2c07:	74 32                	je     2c3b <fun9+0x3b>
    2c09:	48 83 ec 08          	sub    $0x8,%rsp
    2c0d:	8b 17                	mov    (%rdi),%edx
    2c0f:	39 f2                	cmp    %esi,%edx
    2c11:	7f 0c                	jg     2c1f <fun9+0x1f>
    2c13:	b8 00 00 00 00       	mov    $0x0,%eax
    2c18:	75 12                	jne    2c2c <fun9+0x2c>
    2c1a:	48 83 c4 08          	add    $0x8,%rsp
    2c1e:	c3                   	ret    
    2c1f:	48 8b 7f 08          	mov    0x8(%rdi),%rdi
    2c23:	e8 d8 ff ff ff       	call   2c00 <fun9>
    2c28:	01 c0                	add    %eax,%eax
    2c2a:	eb ee                	jmp    2c1a <fun9+0x1a>
    2c2c:	48 8b 7f 10          	mov    0x10(%rdi),%rdi
    2c30:	e8 cb ff ff ff       	call   2c00 <fun9>
    2c35:	8d 44 00 01          	lea    0x1(%rax,%rax,1),%eax
    2c39:	eb df                	jmp    2c1a <fun9+0x1a>
    2c3b:	b8 ff ff ff ff       	mov    $0xffffffff,%eax
    2c40:	c3                   	ret    

0000000000002c41 <phase_9>:
    2c41:	f3 0f 1e fa          	endbr64 
    2c45:	53                   	push   %rbx
    2c46:	ba 0a 00 00 00       	mov    $0xa,%edx
    2c4b:	be 00 00 00 00       	mov    $0x0,%esi
    2c50:	e8 8b f6 ff ff       	call   22e0 <strtol@plt>
    2c55:	48 89 c3             	mov    %rax,%rbx
    2c58:	8d 40 ff             	lea    -0x1(%rax),%eax
    2c5b:	3d ec 03 00 00       	cmp    $0x3ec,%eax
    2c60:	77 15                	ja     2c77 <phase_9+0x36>
    2c62:	89 de                	mov    %ebx,%esi
    2c64:	48 8d 3d e5 48 00 00 	lea    0x48e5(%rip),%rdi        # 7550 <n1>
    2c6b:	e8 90 ff ff ff       	call   2c00 <fun9>
    2c70:	83 f8 07             	cmp    $0x7,%eax
    2c73:	75 09                	jne    2c7e <phase_9+0x3d>
    2c75:	5b                   	pop    %rbx
    2c76:	c3                   	ret    
    2c77:	e8 aa 03 00 00       	call   3026 <explode_bomb>
    2c7c:	eb e4                	jmp    2c62 <phase_9+0x21>
    2c7e:	e8 a3 03 00 00       	call   3026 <explode_bomb>
    2c83:	eb f0                	jmp    2c75 <phase_9+0x34>

0000000000002c85 <sig_handler>:
    2c85:	f3 0f 1e fa          	endbr64 
    2c89:	50                   	push   %rax
    2c8a:	58                   	pop    %rax
    2c8b:	48 83 ec 08          	sub    $0x8,%rsp
    2c8f:	48 8d 3d aa 15 00 00 	lea    0x15aa(%rip),%rdi        # 4240 <array.3472+0x40>
    2c96:	e8 a5 f5 ff ff       	call   2240 <puts@plt>
    2c9b:	bf 03 00 00 00       	mov    $0x3,%edi
    2ca0:	e8 db f6 ff ff       	call   2380 <sleep@plt>
    2ca5:	48 8d 35 d5 16 00 00 	lea    0x16d5(%rip),%rsi        # 4381 <array.3472+0x181>
    2cac:	bf 01 00 00 00       	mov    $0x1,%edi
    2cb1:	b8 00 00 00 00       	mov    $0x0,%eax
    2cb6:	e8 65 f6 ff ff       	call   2320 <__printf_chk@plt>
    2cbb:	48 8b 3d be 4d 00 00 	mov    0x4dbe(%rip),%rdi        # 7a80 <stdout@GLIBC_2.2.5>
    2cc2:	e8 39 f6 ff ff       	call   2300 <fflush@plt>
    2cc7:	bf 01 00 00 00       	mov    $0x1,%edi
    2ccc:	e8 af f6 ff ff       	call   2380 <sleep@plt>
    2cd1:	48 8d 3d b1 16 00 00 	lea    0x16b1(%rip),%rdi        # 4389 <array.3472+0x189>
    2cd8:	e8 63 f5 ff ff       	call   2240 <puts@plt>
    2cdd:	bf 10 00 00 00       	mov    $0x10,%edi
    2ce2:	e8 69 f6 ff ff       	call   2350 <exit@plt>

0000000000002ce7 <invalid_phase>:
    2ce7:	f3 0f 1e fa          	endbr64 
    2ceb:	50                   	push   %rax
    2cec:	58                   	pop    %rax
    2ced:	48 83 ec 08          	sub    $0x8,%rsp
    2cf1:	48 89 fa             	mov    %rdi,%rdx
    2cf4:	48 8d 35 96 16 00 00 	lea    0x1696(%rip),%rsi        # 4391 <array.3472+0x191>
    2cfb:	bf 01 00 00 00       	mov    $0x1,%edi
    2d00:	b8 00 00 00 00       	mov    $0x0,%eax
    2d05:	e8 16 f6 ff ff       	call   2320 <__printf_chk@plt>
    2d0a:	bf 08 00 00 00       	mov    $0x8,%edi
    2d0f:	e8 3c f6 ff ff       	call   2350 <exit@plt>

0000000000002d14 <string_length>:
    2d14:	f3 0f 1e fa          	endbr64 
    2d18:	80 3f 00             	cmpb   $0x0,(%rdi)
    2d1b:	74 12                	je     2d2f <string_length+0x1b>
    2d1d:	b8 00 00 00 00       	mov    $0x0,%eax
    2d22:	48 83 c7 01          	add    $0x1,%rdi
    2d26:	83 c0 01             	add    $0x1,%eax
    2d29:	80 3f 00             	cmpb   $0x0,(%rdi)
    2d2c:	75 f4                	jne    2d22 <string_length+0xe>
    2d2e:	c3                   	ret    
    2d2f:	b8 00 00 00 00       	mov    $0x0,%eax
    2d34:	c3                   	ret    

0000000000002d35 <strings_not_equal>:
    2d35:	f3 0f 1e fa          	endbr64 
    2d39:	41 54                	push   %r12
    2d3b:	55                   	push   %rbp
    2d3c:	53                   	push   %rbx
    2d3d:	48 89 fb             	mov    %rdi,%rbx
    2d40:	48 89 f5             	mov    %rsi,%rbp
    2d43:	e8 cc ff ff ff       	call   2d14 <string_length>
    2d48:	41 89 c4             	mov    %eax,%r12d
    2d4b:	48 89 ef             	mov    %rbp,%rdi
    2d4e:	e8 c1 ff ff ff       	call   2d14 <string_length>
    2d53:	89 c2                	mov    %eax,%edx
    2d55:	b8 01 00 00 00       	mov    $0x1,%eax
    2d5a:	41 39 d4             	cmp    %edx,%r12d
    2d5d:	75 31                	jne    2d90 <strings_not_equal+0x5b>
    2d5f:	0f b6 13             	movzbl (%rbx),%edx
    2d62:	84 d2                	test   %dl,%dl
    2d64:	74 1e                	je     2d84 <strings_not_equal+0x4f>
    2d66:	b8 00 00 00 00       	mov    $0x0,%eax
    2d6b:	38 54 05 00          	cmp    %dl,0x0(%rbp,%rax,1)
    2d6f:	75 1a                	jne    2d8b <strings_not_equal+0x56>
    2d71:	48 83 c0 01          	add    $0x1,%rax
    2d75:	0f b6 14 03          	movzbl (%rbx,%rax,1),%edx
    2d79:	84 d2                	test   %dl,%dl
    2d7b:	75 ee                	jne    2d6b <strings_not_equal+0x36>
    2d7d:	b8 00 00 00 00       	mov    $0x0,%eax
    2d82:	eb 0c                	jmp    2d90 <strings_not_equal+0x5b>
    2d84:	b8 00 00 00 00       	mov    $0x0,%eax
    2d89:	eb 05                	jmp    2d90 <strings_not_equal+0x5b>
    2d8b:	b8 01 00 00 00       	mov    $0x1,%eax
    2d90:	5b                   	pop    %rbx
    2d91:	5d                   	pop    %rbp
    2d92:	41 5c                	pop    %r12
    2d94:	c3                   	ret    

0000000000002d95 <initialize_bomb>:
    2d95:	f3 0f 1e fa          	endbr64 
    2d99:	55                   	push   %rbp
    2d9a:	53                   	push   %rbx
    2d9b:	48 81 ec 00 10 00 00 	sub    $0x1000,%rsp
    2da2:	48 83 0c 24 00       	orq    $0x0,(%rsp)
    2da7:	48 81 ec 00 10 00 00 	sub    $0x1000,%rsp
    2dae:	48 83 0c 24 00       	orq    $0x0,(%rsp)
    2db3:	48 83 ec 58          	sub    $0x58,%rsp
    2db7:	64 48 8b 04 25 28 00 	mov    %fs:0x28,%rax
    2dbe:	00 00 
    2dc0:	48 89 84 24 48 20 00 	mov    %rax,0x2048(%rsp)
    2dc7:	00 
    2dc8:	31 c0                	xor    %eax,%eax
    2dca:	48 8d 35 b4 fe ff ff 	lea    -0x14c(%rip),%rsi        # 2c85 <sig_handler>
    2dd1:	bf 02 00 00 00       	mov    $0x2,%edi
    2dd6:	e8 d5 f4 ff ff       	call   22b0 <signal@plt>
    2ddb:	48 89 e7             	mov    %rsp,%rdi
    2dde:	be 40 00 00 00       	mov    $0x40,%esi
    2de3:	e8 58 f5 ff ff       	call   2340 <gethostname@plt>
    2de8:	85 c0                	test   %eax,%eax
    2dea:	75 4d                	jne    2e39 <initialize_bomb+0xa4>
    2dec:	48 8b 3d 8d 48 00 00 	mov    0x488d(%rip),%rdi        # 7680 <host_table>
    2df3:	48 8d 1d 8e 48 00 00 	lea    0x488e(%rip),%rbx        # 7688 <host_table+0x8>
    2dfa:	48 89 e5             	mov    %rsp,%rbp
    2dfd:	48 85 ff             	test   %rdi,%rdi
    2e00:	74 19                	je     2e1b <initialize_bomb+0x86>
    2e02:	48 89 ee             	mov    %rbp,%rsi
    2e05:	e8 06 f4 ff ff       	call   2210 <strcasecmp@plt>
    2e0a:	85 c0                	test   %eax,%eax
    2e0c:	74 66                	je     2e74 <initialize_bomb+0xdf>
    2e0e:	48 83 c3 08          	add    $0x8,%rbx
    2e12:	48 8b 7b f8          	mov    -0x8(%rbx),%rdi
    2e16:	48 85 ff             	test   %rdi,%rdi
    2e19:	75 e7                	jne    2e02 <initialize_bomb+0x6d>
    2e1b:	48 8d 3d 8e 14 00 00 	lea    0x148e(%rip),%rdi        # 42b0 <array.3472+0xb0>
    2e22:	e8 19 f4 ff ff       	call   2240 <puts@plt>
    2e27:	48 89 e7             	mov    %rsp,%rdi
    2e2a:	e8 11 f4 ff ff       	call   2240 <puts@plt>
    2e2f:	bf 08 00 00 00       	mov    $0x8,%edi
    2e34:	e8 17 f5 ff ff       	call   2350 <exit@plt>
    2e39:	48 8d 3d 38 14 00 00 	lea    0x1438(%rip),%rdi        # 4278 <array.3472+0x78>
    2e40:	e8 fb f3 ff ff       	call   2240 <puts@plt>
    2e45:	bf 08 00 00 00       	mov    $0x8,%edi
    2e4a:	e8 01 f5 ff ff       	call   2350 <exit@plt>
    2e4f:	48 8d 54 24 40       	lea    0x40(%rsp),%rdx
    2e54:	48 8d 35 47 15 00 00 	lea    0x1547(%rip),%rsi        # 43a2 <array.3472+0x1a2>
    2e5b:	bf 01 00 00 00       	mov    $0x1,%edi
    2e60:	b8 00 00 00 00       	mov    $0x0,%eax
    2e65:	e8 b6 f4 ff ff       	call   2320 <__printf_chk@plt>
    2e6a:	bf 08 00 00 00       	mov    $0x8,%edi
    2e6f:	e8 dc f4 ff ff       	call   2350 <exit@plt>
    2e74:	48 8d 7c 24 40       	lea    0x40(%rsp),%rdi
    2e79:	e8 00 0d 00 00       	call   3b7e <init_driver>
    2e7e:	85 c0                	test   %eax,%eax
    2e80:	78 cd                	js     2e4f <initialize_bomb+0xba>
    2e82:	48 8b 84 24 48 20 00 	mov    0x2048(%rsp),%rax
    2e89:	00 
    2e8a:	64 48 33 04 25 28 00 	xor    %fs:0x28,%rax
    2e91:	00 00 
    2e93:	75 0a                	jne    2e9f <initialize_bomb+0x10a>
    2e95:	48 81 c4 58 20 00 00 	add    $0x2058,%rsp
    2e9c:	5b                   	pop    %rbx
    2e9d:	5d                   	pop    %rbp
    2e9e:	c3                   	ret    
    2e9f:	e8 bc f3 ff ff       	call   2260 <__stack_chk_fail@plt>

0000000000002ea4 <initialize_bomb_solve>:
    2ea4:	f3 0f 1e fa          	endbr64 
    2ea8:	c3                   	ret    

0000000000002ea9 <blank_line>:
    2ea9:	f3 0f 1e fa          	endbr64 
    2ead:	55                   	push   %rbp
    2eae:	53                   	push   %rbx
    2eaf:	48 83 ec 08          	sub    $0x8,%rsp
    2eb3:	48 89 fd             	mov    %rdi,%rbp
    2eb6:	0f b6 5d 00          	movzbl 0x0(%rbp),%ebx
    2eba:	84 db                	test   %bl,%bl
    2ebc:	74 1e                	je     2edc <blank_line+0x33>
    2ebe:	e8 cd f4 ff ff       	call   2390 <__ctype_b_loc@plt>
    2ec3:	48 83 c5 01          	add    $0x1,%rbp
    2ec7:	48 0f be db          	movsbq %bl,%rbx
    2ecb:	48 8b 00             	mov    (%rax),%rax
    2ece:	f6 44 58 01 20       	testb  $0x20,0x1(%rax,%rbx,2)
    2ed3:	75 e1                	jne    2eb6 <blank_line+0xd>
    2ed5:	b8 00 00 00 00       	mov    $0x0,%eax
    2eda:	eb 05                	jmp    2ee1 <blank_line+0x38>
    2edc:	b8 01 00 00 00       	mov    $0x1,%eax
    2ee1:	48 83 c4 08          	add    $0x8,%rsp
    2ee5:	5b                   	pop    %rbx
    2ee6:	5d                   	pop    %rbp
    2ee7:	c3                   	ret    

0000000000002ee8 <skip>:
    2ee8:	f3 0f 1e fa          	endbr64 
    2eec:	55                   	push   %rbp
    2eed:	53                   	push   %rbx
    2eee:	48 83 ec 08          	sub    $0x8,%rsp
    2ef2:	48 8d 2d c7 4b 00 00 	lea    0x4bc7(%rip),%rbp        # 7ac0 <input_strings>
    2ef9:	48 63 05 ac 4b 00 00 	movslq 0x4bac(%rip),%rax        # 7aac <num_input_strings>
    2f00:	48 8d 3c 80          	lea    (%rax,%rax,4),%rdi
    2f04:	48 c1 e7 04          	shl    $0x4,%rdi
    2f08:	48 01 ef             	add    %rbp,%rdi
    2f0b:	48 8b 15 9e 4b 00 00 	mov    0x4b9e(%rip),%rdx        # 7ab0 <infile>
    2f12:	be 50 00 00 00       	mov    $0x50,%esi
    2f17:	e8 84 f3 ff ff       	call   22a0 <fgets@plt>
    2f1c:	48 89 c3             	mov    %rax,%rbx
    2f1f:	48 85 c0             	test   %rax,%rax
    2f22:	74 0c                	je     2f30 <skip+0x48>
    2f24:	48 89 c7             	mov    %rax,%rdi
    2f27:	e8 7d ff ff ff       	call   2ea9 <blank_line>
    2f2c:	85 c0                	test   %eax,%eax
    2f2e:	75 c9                	jne    2ef9 <skip+0x11>
    2f30:	48 89 d8             	mov    %rbx,%rax
    2f33:	48 83 c4 08          	add    $0x8,%rsp
    2f37:	5b                   	pop    %rbx
    2f38:	5d                   	pop    %rbp
    2f39:	c3                   	ret    

0000000000002f3a <send_msg>:
    2f3a:	f3 0f 1e fa          	endbr64 
    2f3e:	53                   	push   %rbx
    2f3f:	4c 8d 9c 24 00 c0 ff 	lea    -0x4000(%rsp),%r11
    2f46:	ff 
    2f47:	48 81 ec 00 10 00 00 	sub    $0x1000,%rsp
    2f4e:	48 83 0c 24 00       	orq    $0x0,(%rsp)
    2f53:	4c 39 dc             	cmp    %r11,%rsp
    2f56:	75 ef                	jne    2f47 <send_msg+0xd>
    2f58:	48 83 ec 10          	sub    $0x10,%rsp
    2f5c:	64 48 8b 04 25 28 00 	mov    %fs:0x28,%rax
    2f63:	00 00 
    2f65:	48 89 84 24 08 40 00 	mov    %rax,0x4008(%rsp)
    2f6c:	00 
    2f6d:	31 c0                	xor    %eax,%eax
    2f6f:	8b 15 37 4b 00 00    	mov    0x4b37(%rip),%edx        # 7aac <num_input_strings>
    2f75:	8d 42 ff             	lea    -0x1(%rdx),%eax
    2f78:	48 98                	cltq   
    2f7a:	48 8d 04 80          	lea    (%rax,%rax,4),%rax
    2f7e:	48 c1 e0 04          	shl    $0x4,%rax
    2f82:	48 8d 0d 37 4b 00 00 	lea    0x4b37(%rip),%rcx        # 7ac0 <input_strings>
    2f89:	48 01 c8             	add    %rcx,%rax
    2f8c:	85 ff                	test   %edi,%edi
    2f8e:	4c 8d 0d 27 14 00 00 	lea    0x1427(%rip),%r9        # 43bc <array.3472+0x1bc>
    2f95:	48 8d 0d 28 14 00 00 	lea    0x1428(%rip),%rcx        # 43c4 <array.3472+0x1c4>
    2f9c:	4c 0f 44 c9          	cmove  %rcx,%r9
    2fa0:	48 89 e3             	mov    %rsp,%rbx
    2fa3:	50                   	push   %rax
    2fa4:	52                   	push   %rdx
    2fa5:	44 8b 05 94 45 00 00 	mov    0x4594(%rip),%r8d        # 7540 <bomb_id>
    2fac:	48 8d 0d 1a 14 00 00 	lea    0x141a(%rip),%rcx        # 43cd <array.3472+0x1cd>
    2fb3:	ba 00 20 00 00       	mov    $0x2000,%edx
    2fb8:	be 01 00 00 00       	mov    $0x1,%esi
    2fbd:	48 89 df             	mov    %rbx,%rdi
    2fc0:	b8 00 00 00 00       	mov    $0x0,%eax
    2fc5:	e8 d6 f3 ff ff       	call   23a0 <__sprintf_chk@plt>
    2fca:	48 8d 8c 24 10 20 00 	lea    0x2010(%rsp),%rcx
    2fd1:	00 
    2fd2:	ba 00 00 00 00       	mov    $0x0,%edx
    2fd7:	48 89 de             	mov    %rbx,%rsi
    2fda:	48 8d 3d 5f 41 00 00 	lea    0x415f(%rip),%rdi        # 7140 <userid>
    2fe1:	e8 8d 0d 00 00       	call   3d73 <driver_post>
    2fe6:	48 83 c4 10          	add    $0x10,%rsp
    2fea:	85 c0                	test   %eax,%eax
    2fec:	78 1c                	js     300a <send_msg+0xd0>
    2fee:	48 8b 84 24 08 40 00 	mov    0x4008(%rsp),%rax
    2ff5:	00 
    2ff6:	64 48 33 04 25 28 00 	xor    %fs:0x28,%rax
    2ffd:	00 00 
    2fff:	75 20                	jne    3021 <send_msg+0xe7>
    3001:	48 81 c4 10 40 00 00 	add    $0x4010,%rsp
    3008:	5b                   	pop    %rbx
    3009:	c3                   	ret    
    300a:	48 8d bc 24 00 20 00 	lea    0x2000(%rsp),%rdi
    3011:	00 
    3012:	e8 29 f2 ff ff       	call   2240 <puts@plt>
    3017:	bf 00 00 00 00       	mov    $0x0,%edi
    301c:	e8 2f f3 ff ff       	call   2350 <exit@plt>
    3021:	e8 3a f2 ff ff       	call   2260 <__stack_chk_fail@plt>

0000000000003026 <explode_bomb>:
    3026:	f3 0f 1e fa          	endbr64 
    302a:	50                   	push   %rax
    302b:	58                   	pop    %rax
    302c:	48 83 ec 08          	sub    $0x8,%rsp
    3030:	48 8d 3d a2 13 00 00 	lea    0x13a2(%rip),%rdi        # 43d9 <array.3472+0x1d9>
    3037:	e8 04 f2 ff ff       	call   2240 <puts@plt>
    303c:	48 8d 3d 9f 13 00 00 	lea    0x139f(%rip),%rdi        # 43e2 <array.3472+0x1e2>
    3043:	e8 f8 f1 ff ff       	call   2240 <puts@plt>
    3048:	bf 00 00 00 00       	mov    $0x0,%edi
    304d:	e8 e8 fe ff ff       	call   2f3a <send_msg>
    3052:	48 8d 3d 8f 12 00 00 	lea    0x128f(%rip),%rdi        # 42e8 <array.3472+0xe8>
    3059:	e8 e2 f1 ff ff       	call   2240 <puts@plt>
    305e:	bf 08 00 00 00       	mov    $0x8,%edi
    3063:	e8 e8 f2 ff ff       	call   2350 <exit@plt>

0000000000003068 <read_six_numbers>:
    3068:	f3 0f 1e fa          	endbr64 
    306c:	48 83 ec 08          	sub    $0x8,%rsp
    3070:	48 89 f2             	mov    %rsi,%rdx
    3073:	48 8d 4e 04          	lea    0x4(%rsi),%rcx
    3077:	48 8d 46 14          	lea    0x14(%rsi),%rax
    307b:	50                   	push   %rax
    307c:	48 8d 46 10          	lea    0x10(%rsi),%rax
    3080:	50                   	push   %rax
    3081:	4c 8d 4e 0c          	lea    0xc(%rsi),%r9
    3085:	4c 8d 46 08          	lea    0x8(%rsi),%r8
    3089:	48 8d 35 69 13 00 00 	lea    0x1369(%rip),%rsi        # 43f9 <array.3472+0x1f9>
    3090:	b8 00 00 00 00       	mov    $0x0,%eax
    3095:	e8 76 f2 ff ff       	call   2310 <__isoc99_sscanf@plt>
    309a:	48 83 c4 10          	add    $0x10,%rsp
    309e:	83 f8 05             	cmp    $0x5,%eax
    30a1:	7e 05                	jle    30a8 <read_six_numbers+0x40>
    30a3:	48 83 c4 08          	add    $0x8,%rsp
    30a7:	c3                   	ret    
    30a8:	e8 79 ff ff ff       	call   3026 <explode_bomb>

00000000000030ad <read_line>:
    30ad:	f3 0f 1e fa          	endbr64 
    30b1:	48 83 ec 08          	sub    $0x8,%rsp
    30b5:	b8 00 00 00 00       	mov    $0x0,%eax
    30ba:	e8 29 fe ff ff       	call   2ee8 <skip>
    30bf:	48 85 c0             	test   %rax,%rax
    30c2:	74 6f                	je     3133 <read_line+0x86>
    30c4:	8b 35 e2 49 00 00    	mov    0x49e2(%rip),%esi        # 7aac <num_input_strings>
    30ca:	48 63 c6             	movslq %esi,%rax
    30cd:	48 8d 14 80          	lea    (%rax,%rax,4),%rdx
    30d1:	48 c1 e2 04          	shl    $0x4,%rdx
    30d5:	48 8d 05 e4 49 00 00 	lea    0x49e4(%rip),%rax        # 7ac0 <input_strings>
    30dc:	48 01 c2             	add    %rax,%rdx
    30df:	48 c7 c1 ff ff ff ff 	mov    $0xffffffffffffffff,%rcx
    30e6:	b8 00 00 00 00       	mov    $0x0,%eax
    30eb:	48 89 d7             	mov    %rdx,%rdi
    30ee:	f2 ae                	repnz scas %es:(%rdi),%al
    30f0:	48 f7 d1             	not    %rcx
    30f3:	48 83 e9 01          	sub    $0x1,%rcx
    30f7:	83 f9 4e             	cmp    $0x4e,%ecx
    30fa:	0f 8f ab 00 00 00    	jg     31ab <read_line+0xfe>
    3100:	83 e9 01             	sub    $0x1,%ecx
    3103:	48 63 c9             	movslq %ecx,%rcx
    3106:	48 63 c6             	movslq %esi,%rax
    3109:	48 8d 04 80          	lea    (%rax,%rax,4),%rax
    310d:	48 c1 e0 04          	shl    $0x4,%rax
    3111:	48 89 c7             	mov    %rax,%rdi
    3114:	48 8d 05 a5 49 00 00 	lea    0x49a5(%rip),%rax        # 7ac0 <input_strings>
    311b:	48 01 f8             	add    %rdi,%rax
    311e:	c6 04 08 00          	movb   $0x0,(%rax,%rcx,1)
    3122:	83 c6 01             	add    $0x1,%esi
    3125:	89 35 81 49 00 00    	mov    %esi,0x4981(%rip)        # 7aac <num_input_strings>
    312b:	48 89 d0             	mov    %rdx,%rax
    312e:	48 83 c4 08          	add    $0x8,%rsp
    3132:	c3                   	ret    
    3133:	48 8b 05 56 49 00 00 	mov    0x4956(%rip),%rax        # 7a90 <stdin@GLIBC_2.2.5>
    313a:	48 39 05 6f 49 00 00 	cmp    %rax,0x496f(%rip)        # 7ab0 <infile>
    3141:	74 1b                	je     315e <read_line+0xb1>
    3143:	48 8d 3d df 12 00 00 	lea    0x12df(%rip),%rdi        # 4429 <array.3472+0x229>
    314a:	e8 b1 f0 ff ff       	call   2200 <getenv@plt>
    314f:	48 85 c0             	test   %rax,%rax
    3152:	74 20                	je     3174 <read_line+0xc7>
    3154:	bf 00 00 00 00       	mov    $0x0,%edi
    3159:	e8 f2 f1 ff ff       	call   2350 <exit@plt>
    315e:	48 8d 3d a6 12 00 00 	lea    0x12a6(%rip),%rdi        # 440b <array.3472+0x20b>
    3165:	e8 d6 f0 ff ff       	call   2240 <puts@plt>
    316a:	bf 08 00 00 00       	mov    $0x8,%edi
    316f:	e8 dc f1 ff ff       	call   2350 <exit@plt>
    3174:	48 8b 05 15 49 00 00 	mov    0x4915(%rip),%rax        # 7a90 <stdin@GLIBC_2.2.5>
    317b:	48 89 05 2e 49 00 00 	mov    %rax,0x492e(%rip)        # 7ab0 <infile>
    3182:	b8 00 00 00 00       	mov    $0x0,%eax
    3187:	e8 5c fd ff ff       	call   2ee8 <skip>
    318c:	48 85 c0             	test   %rax,%rax
    318f:	0f 85 2f ff ff ff    	jne    30c4 <read_line+0x17>
    3195:	48 8d 3d 6f 12 00 00 	lea    0x126f(%rip),%rdi        # 440b <array.3472+0x20b>
    319c:	e8 9f f0 ff ff       	call   2240 <puts@plt>
    31a1:	bf 00 00 00 00       	mov    $0x0,%edi
    31a6:	e8 a5 f1 ff ff       	call   2350 <exit@plt>
    31ab:	48 8d 3d 82 12 00 00 	lea    0x1282(%rip),%rdi        # 4434 <array.3472+0x234>
    31b2:	e8 89 f0 ff ff       	call   2240 <puts@plt>
    31b7:	8b 05 ef 48 00 00    	mov    0x48ef(%rip),%eax        # 7aac <num_input_strings>
    31bd:	8d 50 01             	lea    0x1(%rax),%edx
    31c0:	89 15 e6 48 00 00    	mov    %edx,0x48e6(%rip)        # 7aac <num_input_strings>
    31c6:	48 98                	cltq   
    31c8:	48 6b c0 50          	imul   $0x50,%rax,%rax
    31cc:	48 8d 15 ed 48 00 00 	lea    0x48ed(%rip),%rdx        # 7ac0 <input_strings>
    31d3:	48 be 2a 2a 2a 74 72 	movabs $0x636e7572742a2a2a,%rsi
    31da:	75 6e 63 
    31dd:	48 bf 61 74 65 64 2a 	movabs $0x2a2a2a64657461,%rdi
    31e4:	2a 2a 00 
    31e7:	48 89 34 02          	mov    %rsi,(%rdx,%rax,1)
    31eb:	48 89 7c 02 08       	mov    %rdi,0x8(%rdx,%rax,1)
    31f0:	e8 31 fe ff ff       	call   3026 <explode_bomb>

00000000000031f5 <phase_defused>:
    31f5:	f3 0f 1e fa          	endbr64 
    31f9:	48 83 ec 08          	sub    $0x8,%rsp
    31fd:	bf 01 00 00 00       	mov    $0x1,%edi
    3202:	e8 33 fd ff ff       	call   2f3a <send_msg>
    3207:	83 3d 9e 48 00 00 09 	cmpl   $0x9,0x489e(%rip)        # 7aac <num_input_strings>
    320e:	74 05                	je     3215 <phase_defused+0x20>
    3210:	48 83 c4 08          	add    $0x8,%rsp
    3214:	c3                   	ret    
    3215:	48 8d 3d f4 10 00 00 	lea    0x10f4(%rip),%rdi        # 4310 <array.3472+0x110>
    321c:	e8 1f f0 ff ff       	call   2240 <puts@plt>
    3221:	48 8d 3d 18 11 00 00 	lea    0x1118(%rip),%rdi        # 4340 <array.3472+0x140>
    3228:	e8 13 f0 ff ff       	call   2240 <puts@plt>
    322d:	eb e1                	jmp    3210 <phase_defused+0x1b>

000000000000322f <sigalrm_handler>:
    322f:	f3 0f 1e fa          	endbr64 
    3233:	50                   	push   %rax
    3234:	58                   	pop    %rax
    3235:	48 83 ec 08          	sub    $0x8,%rsp
    3239:	b9 00 00 00 00       	mov    $0x0,%ecx
    323e:	48 8d 15 93 16 00 00 	lea    0x1693(%rip),%rdx        # 48d8 <array.3472+0x6d8>
    3245:	be 01 00 00 00       	mov    $0x1,%esi
    324a:	48 8b 3d 4f 48 00 00 	mov    0x484f(%rip),%rdi        # 7aa0 <stderr@GLIBC_2.2.5>
    3251:	b8 00 00 00 00       	mov    $0x0,%eax
    3256:	e8 15 f1 ff ff       	call   2370 <__fprintf_chk@plt>
    325b:	bf 01 00 00 00       	mov    $0x1,%edi
    3260:	e8 eb f0 ff ff       	call   2350 <exit@plt>

0000000000003265 <rio_readlineb>:
    3265:	41 56                	push   %r14
    3267:	41 55                	push   %r13
    3269:	41 54                	push   %r12
    326b:	55                   	push   %rbp
    326c:	53                   	push   %rbx
    326d:	48 89 f5             	mov    %rsi,%rbp
    3270:	48 83 fa 01          	cmp    $0x1,%rdx
    3274:	0f 86 90 00 00 00    	jbe    330a <rio_readlineb+0xa5>
    327a:	48 89 fb             	mov    %rdi,%rbx
    327d:	4c 8d 74 16 ff       	lea    -0x1(%rsi,%rdx,1),%r14
    3282:	41 bd 01 00 00 00    	mov    $0x1,%r13d
    3288:	4c 8d 67 10          	lea    0x10(%rdi),%r12
    328c:	eb 54                	jmp    32e2 <rio_readlineb+0x7d>
    328e:	e8 8d ef ff ff       	call   2220 <__errno_location@plt>
    3293:	83 38 04             	cmpl   $0x4,(%rax)
    3296:	75 53                	jne    32eb <rio_readlineb+0x86>
    3298:	ba 00 20 00 00       	mov    $0x2000,%edx
    329d:	4c 89 e6             	mov    %r12,%rsi
    32a0:	8b 3b                	mov    (%rbx),%edi
    32a2:	e8 e9 ef ff ff       	call   2290 <read@plt>
    32a7:	89 c2                	mov    %eax,%edx
    32a9:	89 43 04             	mov    %eax,0x4(%rbx)
    32ac:	85 c0                	test   %eax,%eax
    32ae:	78 de                	js     328e <rio_readlineb+0x29>
    32b0:	85 c0                	test   %eax,%eax
    32b2:	74 40                	je     32f4 <rio_readlineb+0x8f>
    32b4:	4c 89 63 08          	mov    %r12,0x8(%rbx)
    32b8:	48 8b 43 08          	mov    0x8(%rbx),%rax
    32bc:	0f b6 08             	movzbl (%rax),%ecx
    32bf:	48 83 c0 01          	add    $0x1,%rax
    32c3:	48 89 43 08          	mov    %rax,0x8(%rbx)
    32c7:	83 ea 01             	sub    $0x1,%edx
    32ca:	89 53 04             	mov    %edx,0x4(%rbx)
    32cd:	48 83 c5 01          	add    $0x1,%rbp
    32d1:	88 4d ff             	mov    %cl,-0x1(%rbp)
    32d4:	80 f9 0a             	cmp    $0xa,%cl
    32d7:	74 3c                	je     3315 <rio_readlineb+0xb0>
    32d9:	41 83 c5 01          	add    $0x1,%r13d
    32dd:	4c 39 f5             	cmp    %r14,%rbp
    32e0:	74 30                	je     3312 <rio_readlineb+0xad>
    32e2:	8b 53 04             	mov    0x4(%rbx),%edx
    32e5:	85 d2                	test   %edx,%edx
    32e7:	7e af                	jle    3298 <rio_readlineb+0x33>
    32e9:	eb cd                	jmp    32b8 <rio_readlineb+0x53>
    32eb:	48 c7 c0 ff ff ff ff 	mov    $0xffffffffffffffff,%rax
    32f2:	eb 05                	jmp    32f9 <rio_readlineb+0x94>
    32f4:	b8 00 00 00 00       	mov    $0x0,%eax
    32f9:	85 c0                	test   %eax,%eax
    32fb:	75 28                	jne    3325 <rio_readlineb+0xc0>
    32fd:	b8 00 00 00 00       	mov    $0x0,%eax
    3302:	41 83 fd 01          	cmp    $0x1,%r13d
    3306:	75 0d                	jne    3315 <rio_readlineb+0xb0>
    3308:	eb 12                	jmp    331c <rio_readlineb+0xb7>
    330a:	41 bd 01 00 00 00    	mov    $0x1,%r13d
    3310:	eb 03                	jmp    3315 <rio_readlineb+0xb0>
    3312:	4c 89 f5             	mov    %r14,%rbp
    3315:	c6 45 00 00          	movb   $0x0,0x0(%rbp)
    3319:	49 63 c5             	movslq %r13d,%rax
    331c:	5b                   	pop    %rbx
    331d:	5d                   	pop    %rbp
    331e:	41 5c                	pop    %r12
    3320:	41 5d                	pop    %r13
    3322:	41 5e                	pop    %r14
    3324:	c3                   	ret    
    3325:	48 c7 c0 ff ff ff ff 	mov    $0xffffffffffffffff,%rax
    332c:	eb ee                	jmp    331c <rio_readlineb+0xb7>

000000000000332e <submitr>:
    332e:	f3 0f 1e fa          	endbr64 
    3332:	41 57                	push   %r15
    3334:	41 56                	push   %r14
    3336:	41 55                	push   %r13
    3338:	41 54                	push   %r12
    333a:	55                   	push   %rbp
    333b:	53                   	push   %rbx
    333c:	4c 8d 9c 24 00 60 ff 	lea    -0xa000(%rsp),%r11
    3343:	ff 
    3344:	48 81 ec 00 10 00 00 	sub    $0x1000,%rsp
    334b:	48 83 0c 24 00       	orq    $0x0,(%rsp)
    3350:	4c 39 dc             	cmp    %r11,%rsp
    3353:	75 ef                	jne    3344 <submitr+0x16>
    3355:	48 83 ec 68          	sub    $0x68,%rsp
    3359:	48 89 fd             	mov    %rdi,%rbp
    335c:	41 89 f5             	mov    %esi,%r13d
    335f:	48 89 54 24 08       	mov    %rdx,0x8(%rsp)
    3364:	48 89 4c 24 10       	mov    %rcx,0x10(%rsp)
    3369:	4c 89 44 24 18       	mov    %r8,0x18(%rsp)
    336e:	4c 89 cb             	mov    %r9,%rbx
    3371:	4c 8b bc 24 a0 a0 00 	mov    0xa0a0(%rsp),%r15
    3378:	00 
    3379:	64 48 8b 04 25 28 00 	mov    %fs:0x28,%rax
    3380:	00 00 
    3382:	48 89 84 24 58 a0 00 	mov    %rax,0xa058(%rsp)
    3389:	00 
    338a:	31 c0                	xor    %eax,%eax
    338c:	c7 44 24 2c 00 00 00 	movl   $0x0,0x2c(%rsp)
    3393:	00 
    3394:	ba 00 00 00 00       	mov    $0x0,%edx
    3399:	be 01 00 00 00       	mov    $0x1,%esi
    339e:	bf 02 00 00 00       	mov    $0x2,%edi
    33a3:	e8 08 f0 ff ff       	call   23b0 <socket@plt>
    33a8:	85 c0                	test   %eax,%eax
    33aa:	0f 88 1a 01 00 00    	js     34ca <submitr+0x19c>
    33b0:	41 89 c4             	mov    %eax,%r12d
    33b3:	48 89 ef             	mov    %rbp,%rdi
    33b6:	e8 05 ef ff ff       	call   22c0 <gethostbyname@plt>
    33bb:	48 85 c0             	test   %rax,%rax
    33be:	0f 84 56 01 00 00    	je     351a <submitr+0x1ec>
    33c4:	48 8d 6c 24 30       	lea    0x30(%rsp),%rbp
    33c9:	48 c7 44 24 30 00 00 	movq   $0x0,0x30(%rsp)
    33d0:	00 00 
    33d2:	48 c7 44 24 38 00 00 	movq   $0x0,0x38(%rsp)
    33d9:	00 00 
    33db:	66 c7 44 24 30 02 00 	movw   $0x2,0x30(%rsp)
    33e2:	48 63 50 14          	movslq 0x14(%rax),%rdx
    33e6:	48 8b 40 18          	mov    0x18(%rax),%rax
    33ea:	48 8d 7c 24 34       	lea    0x34(%rsp),%rdi
    33ef:	b9 0c 00 00 00       	mov    $0xc,%ecx
    33f4:	48 8b 30             	mov    (%rax),%rsi
    33f7:	e8 d4 ee ff ff       	call   22d0 <__memmove_chk@plt>
    33fc:	66 41 c1 c5 08       	rol    $0x8,%r13w
    3401:	66 44 89 6c 24 32    	mov    %r13w,0x32(%rsp)
    3407:	ba 10 00 00 00       	mov    $0x10,%edx
    340c:	48 89 ee             	mov    %rbp,%rsi
    340f:	44 89 e7             	mov    %r12d,%edi
    3412:	e8 49 ef ff ff       	call   2360 <connect@plt>
    3417:	85 c0                	test   %eax,%eax
    3419:	0f 88 66 01 00 00    	js     3585 <submitr+0x257>
    341f:	49 c7 c1 ff ff ff ff 	mov    $0xffffffffffffffff,%r9
    3426:	b8 00 00 00 00       	mov    $0x0,%eax
    342b:	4c 89 c9             	mov    %r9,%rcx
    342e:	48 89 df             	mov    %rbx,%rdi
    3431:	f2 ae                	repnz scas %es:(%rdi),%al
    3433:	48 f7 d1             	not    %rcx
    3436:	48 89 ce             	mov    %rcx,%rsi
    3439:	4c 89 c9             	mov    %r9,%rcx
    343c:	48 8b 7c 24 08       	mov    0x8(%rsp),%rdi
    3441:	f2 ae                	repnz scas %es:(%rdi),%al
    3443:	49 89 c8             	mov    %rcx,%r8
    3446:	4c 89 c9             	mov    %r9,%rcx
    3449:	48 8b 7c 24 10       	mov    0x10(%rsp),%rdi
    344e:	f2 ae                	repnz scas %es:(%rdi),%al
    3450:	48 89 ca             	mov    %rcx,%rdx
    3453:	48 f7 d2             	not    %rdx
    3456:	4c 89 c9             	mov    %r9,%rcx
    3459:	48 8b 7c 24 18       	mov    0x18(%rsp),%rdi
    345e:	f2 ae                	repnz scas %es:(%rdi),%al
    3460:	4c 29 c2             	sub    %r8,%rdx
    3463:	48 29 ca             	sub    %rcx,%rdx
    3466:	48 8d 44 76 fd       	lea    -0x3(%rsi,%rsi,2),%rax
    346b:	48 8d 44 02 7b       	lea    0x7b(%rdx,%rax,1),%rax
    3470:	48 3d 00 20 00 00    	cmp    $0x2000,%rax
    3476:	0f 87 66 01 00 00    	ja     35e2 <submitr+0x2b4>
    347c:	48 8d 94 24 50 40 00 	lea    0x4050(%rsp),%rdx
    3483:	00 
    3484:	b9 00 04 00 00       	mov    $0x400,%ecx
    3489:	b8 00 00 00 00       	mov    $0x0,%eax
    348e:	48 89 d7             	mov    %rdx,%rdi
    3491:	f3 48 ab             	rep stos %rax,%es:(%rdi)
    3494:	48 c7 c1 ff ff ff ff 	mov    $0xffffffffffffffff,%rcx
    349b:	48 89 df             	mov    %rbx,%rdi
    349e:	f2 ae                	repnz scas %es:(%rdi),%al
    34a0:	48 f7 d1             	not    %rcx
    34a3:	48 8d 41 ff          	lea    -0x1(%rcx),%rax
    34a7:	83 f9 01             	cmp    $0x1,%ecx
    34aa:	0f 84 08 05 00 00    	je     39b8 <submitr+0x68a>
    34b0:	8d 40 ff             	lea    -0x1(%rax),%eax
    34b3:	4c 8d 74 03 01       	lea    0x1(%rbx,%rax,1),%r14
    34b8:	48 89 d5             	mov    %rdx,%rbp
    34bb:	49 bd d9 ff 00 00 00 	movabs $0x2000000000ffd9,%r13
    34c2:	00 20 00 
    34c5:	e9 a6 01 00 00       	jmp    3670 <submitr+0x342>
    34ca:	48 b8 45 72 72 6f 72 	movabs $0x43203a726f727245,%rax
    34d1:	3a 20 43 
    34d4:	48 ba 6c 69 65 6e 74 	movabs $0x6e7520746e65696c,%rdx
    34db:	20 75 6e 
    34de:	49 89 07             	mov    %rax,(%r15)
    34e1:	49 89 57 08          	mov    %rdx,0x8(%r15)
    34e5:	48 b8 61 62 6c 65 20 	movabs $0x206f7420656c6261,%rax
    34ec:	74 6f 20 
    34ef:	48 ba 63 72 65 61 74 	movabs $0x7320657461657263,%rdx
    34f6:	65 20 73 
    34f9:	49 89 47 10          	mov    %rax,0x10(%r15)
    34fd:	49 89 57 18          	mov    %rdx,0x18(%r15)
    3501:	41 c7 47 20 6f 63 6b 	movl   $0x656b636f,0x20(%r15)
    3508:	65 
    3509:	66 41 c7 47 24 74 00 	movw   $0x74,0x24(%r15)
    3510:	b8 ff ff ff ff       	mov    $0xffffffff,%eax
    3515:	e9 16 03 00 00       	jmp    3830 <submitr+0x502>
    351a:	48 b8 45 72 72 6f 72 	movabs $0x44203a726f727245,%rax
    3521:	3a 20 44 
    3524:	48 ba 4e 53 20 69 73 	movabs $0x6e7520736920534e,%rdx
    352b:	20 75 6e 
    352e:	49 89 07             	mov    %rax,(%r15)
    3531:	49 89 57 08          	mov    %rdx,0x8(%r15)
    3535:	48 b8 61 62 6c 65 20 	movabs $0x206f7420656c6261,%rax
    353c:	74 6f 20 
    353f:	48 ba 72 65 73 6f 6c 	movabs $0x2065766c6f736572,%rdx
    3546:	76 65 20 
    3549:	49 89 47 10          	mov    %rax,0x10(%r15)
    354d:	49 89 57 18          	mov    %rdx,0x18(%r15)
    3551:	48 b8 73 65 72 76 65 	movabs $0x6120726576726573,%rax
    3558:	72 20 61 
    355b:	49 89 47 20          	mov    %rax,0x20(%r15)
    355f:	41 c7 47 28 64 64 72 	movl   $0x65726464,0x28(%r15)
    3566:	65 
    3567:	66 41 c7 47 2c 73 73 	movw   $0x7373,0x2c(%r15)
    356e:	41 c6 47 2e 00       	movb   $0x0,0x2e(%r15)
    3573:	44 89 e7             	mov    %r12d,%edi
    3576:	e8 05 ed ff ff       	call   2280 <close@plt>
    357b:	b8 ff ff ff ff       	mov    $0xffffffff,%eax
    3580:	e9 ab 02 00 00       	jmp    3830 <submitr+0x502>
    3585:	48 b8 45 72 72 6f 72 	movabs $0x55203a726f727245,%rax
    358c:	3a 20 55 
    358f:	48 ba 6e 61 62 6c 65 	movabs $0x6f7420656c62616e,%rdx
    3596:	20 74 6f 
    3599:	49 89 07             	mov    %rax,(%r15)
    359c:	49 89 57 08          	mov    %rdx,0x8(%r15)
    35a0:	48 b8 20 63 6f 6e 6e 	movabs $0x7463656e6e6f6320,%rax
    35a7:	65 63 74 
    35aa:	48 ba 20 74 6f 20 74 	movabs $0x20656874206f7420,%rdx
    35b1:	68 65 20 
    35b4:	49 89 47 10          	mov    %rax,0x10(%r15)
    35b8:	49 89 57 18          	mov    %rdx,0x18(%r15)
    35bc:	41 c7 47 20 73 65 72 	movl   $0x76726573,0x20(%r15)
    35c3:	76 
    35c4:	66 41 c7 47 24 65 72 	movw   $0x7265,0x24(%r15)
    35cb:	41 c6 47 26 00       	movb   $0x0,0x26(%r15)
    35d0:	44 89 e7             	mov    %r12d,%edi
    35d3:	e8 a8 ec ff ff       	call   2280 <close@plt>
    35d8:	b8 ff ff ff ff       	mov    $0xffffffff,%eax
    35dd:	e9 4e 02 00 00       	jmp    3830 <submitr+0x502>
    35e2:	48 b8 45 72 72 6f 72 	movabs $0x52203a726f727245,%rax
    35e9:	3a 20 52 
    35ec:	48 ba 65 73 75 6c 74 	movabs $0x747320746c757365,%rdx
    35f3:	20 73 74 
    35f6:	49 89 07             	mov    %rax,(%r15)
    35f9:	49 89 57 08          	mov    %rdx,0x8(%r15)
    35fd:	48 b8 72 69 6e 67 20 	movabs $0x6f6f7420676e6972,%rax
    3604:	74 6f 6f 
    3607:	48 ba 20 6c 61 72 67 	movabs $0x202e656772616c20,%rdx
    360e:	65 2e 20 
    3611:	49 89 47 10          	mov    %rax,0x10(%r15)
    3615:	49 89 57 18          	mov    %rdx,0x18(%r15)
    3619:	48 b8 49 6e 63 72 65 	movabs $0x6573616572636e49,%rax
    3620:	61 73 65 
    3623:	48 ba 20 53 55 42 4d 	movabs $0x5254494d42555320,%rdx
    362a:	49 54 52 
    362d:	49 89 47 20          	mov    %rax,0x20(%r15)
    3631:	49 89 57 28          	mov    %rdx,0x28(%r15)
    3635:	48 b8 5f 4d 41 58 42 	movabs $0x46554258414d5f,%rax
    363c:	55 46 00 
    363f:	49 89 47 30          	mov    %rax,0x30(%r15)
    3643:	44 89 e7             	mov    %r12d,%edi
    3646:	e8 35 ec ff ff       	call   2280 <close@plt>
    364b:	b8 ff ff ff ff       	mov    $0xffffffff,%eax
    3650:	e9 db 01 00 00       	jmp    3830 <submitr+0x502>
    3655:	49 0f a3 c5          	bt     %rax,%r13
    3659:	73 21                	jae    367c <submitr+0x34e>
    365b:	44 88 45 00          	mov    %r8b,0x0(%rbp)
    365f:	48 8d 6d 01          	lea    0x1(%rbp),%rbp
    3663:	48 83 c3 01          	add    $0x1,%rbx
    3667:	4c 39 f3             	cmp    %r14,%rbx
    366a:	0f 84 48 03 00 00    	je     39b8 <submitr+0x68a>
    3670:	44 0f b6 03          	movzbl (%rbx),%r8d
    3674:	41 8d 40 d6          	lea    -0x2a(%r8),%eax
    3678:	3c 35                	cmp    $0x35,%al
    367a:	76 d9                	jbe    3655 <submitr+0x327>
    367c:	44 89 c0             	mov    %r8d,%eax
    367f:	83 e0 df             	and    $0xffffffdf,%eax
    3682:	83 e8 41             	sub    $0x41,%eax
    3685:	3c 19                	cmp    $0x19,%al
    3687:	76 d2                	jbe    365b <submitr+0x32d>
    3689:	41 80 f8 20          	cmp    $0x20,%r8b
    368d:	74 63                	je     36f2 <submitr+0x3c4>
    368f:	41 8d 40 e0          	lea    -0x20(%r8),%eax
    3693:	3c 5f                	cmp    $0x5f,%al
    3695:	76 0a                	jbe    36a1 <submitr+0x373>
    3697:	41 80 f8 09          	cmp    $0x9,%r8b
    369b:	0f 85 8a 02 00 00    	jne    392b <submitr+0x5fd>
    36a1:	48 8d bc 24 50 80 00 	lea    0x8050(%rsp),%rdi
    36a8:	00 
    36a9:	45 0f b6 c0          	movzbl %r8b,%r8d
    36ad:	48 8d 0d f2 12 00 00 	lea    0x12f2(%rip),%rcx        # 49a6 <array.3472+0x7a6>
    36b4:	ba 08 00 00 00       	mov    $0x8,%edx
    36b9:	be 01 00 00 00       	mov    $0x1,%esi
    36be:	b8 00 00 00 00       	mov    $0x0,%eax
    36c3:	e8 d8 ec ff ff       	call   23a0 <__sprintf_chk@plt>
    36c8:	0f b6 84 24 50 80 00 	movzbl 0x8050(%rsp),%eax
    36cf:	00 
    36d0:	88 45 00             	mov    %al,0x0(%rbp)
    36d3:	0f b6 84 24 51 80 00 	movzbl 0x8051(%rsp),%eax
    36da:	00 
    36db:	88 45 01             	mov    %al,0x1(%rbp)
    36de:	0f b6 84 24 52 80 00 	movzbl 0x8052(%rsp),%eax
    36e5:	00 
    36e6:	88 45 02             	mov    %al,0x2(%rbp)
    36e9:	48 8d 6d 03          	lea    0x3(%rbp),%rbp
    36ed:	e9 71 ff ff ff       	jmp    3663 <submitr+0x335>
    36f2:	c6 45 00 2b          	movb   $0x2b,0x0(%rbp)
    36f6:	48 8d 6d 01          	lea    0x1(%rbp),%rbp
    36fa:	e9 64 ff ff ff       	jmp    3663 <submitr+0x335>
    36ff:	48 01 c5             	add    %rax,%rbp
    3702:	48 29 c3             	sub    %rax,%rbx
    3705:	0f 84 1d 03 00 00    	je     3a28 <submitr+0x6fa>
    370b:	48 89 da             	mov    %rbx,%rdx
    370e:	48 89 ee             	mov    %rbp,%rsi
    3711:	44 89 e7             	mov    %r12d,%edi
    3714:	e8 37 eb ff ff       	call   2250 <write@plt>
    3719:	48 85 c0             	test   %rax,%rax
    371c:	7f e1                	jg     36ff <submitr+0x3d1>
    371e:	e8 fd ea ff ff       	call   2220 <__errno_location@plt>
    3723:	83 38 04             	cmpl   $0x4,(%rax)
    3726:	0f 85 a0 01 00 00    	jne    38cc <submitr+0x59e>
    372c:	4c 89 e8             	mov    %r13,%rax
    372f:	eb ce                	jmp    36ff <submitr+0x3d1>
    3731:	48 b8 45 72 72 6f 72 	movabs $0x43203a726f727245,%rax
    3738:	3a 20 43 
    373b:	48 ba 6c 69 65 6e 74 	movabs $0x6e7520746e65696c,%rdx
    3742:	20 75 6e 
    3745:	49 89 07             	mov    %rax,(%r15)
    3748:	49 89 57 08          	mov    %rdx,0x8(%r15)
    374c:	48 b8 61 62 6c 65 20 	movabs $0x206f7420656c6261,%rax
    3753:	74 6f 20 
    3756:	48 ba 72 65 61 64 20 	movabs $0x7269662064616572,%rdx
    375d:	66 69 72 
    3760:	49 89 47 10          	mov    %rax,0x10(%r15)
    3764:	49 89 57 18          	mov    %rdx,0x18(%r15)
    3768:	48 b8 73 74 20 68 65 	movabs $0x6564616568207473,%rax
    376f:	61 64 65 
    3772:	48 ba 72 20 66 72 6f 	movabs $0x73206d6f72662072,%rdx
    3779:	6d 20 73 
    377c:	49 89 47 20          	mov    %rax,0x20(%r15)
    3780:	49 89 57 28          	mov    %rdx,0x28(%r15)
    3784:	41 c7 47 30 65 72 76 	movl   $0x65767265,0x30(%r15)
    378b:	65 
    378c:	66 41 c7 47 34 72 00 	movw   $0x72,0x34(%r15)
    3793:	44 89 e7             	mov    %r12d,%edi
    3796:	e8 e5 ea ff ff       	call   2280 <close@plt>
    379b:	b8 ff ff ff ff       	mov    $0xffffffff,%eax
    37a0:	e9 8b 00 00 00       	jmp    3830 <submitr+0x502>
    37a5:	4c 8d 8c 24 50 80 00 	lea    0x8050(%rsp),%r9
    37ac:	00 
    37ad:	48 8d 0d 4c 11 00 00 	lea    0x114c(%rip),%rcx        # 4900 <array.3472+0x700>
    37b4:	48 c7 c2 ff ff ff ff 	mov    $0xffffffffffffffff,%rdx
    37bb:	be 01 00 00 00       	mov    $0x1,%esi
    37c0:	4c 89 ff             	mov    %r15,%rdi
    37c3:	b8 00 00 00 00       	mov    $0x0,%eax
    37c8:	e8 d3 eb ff ff       	call   23a0 <__sprintf_chk@plt>
    37cd:	44 89 e7             	mov    %r12d,%edi
    37d0:	e8 ab ea ff ff       	call   2280 <close@plt>
    37d5:	b8 ff ff ff ff       	mov    $0xffffffff,%eax
    37da:	eb 54                	jmp    3830 <submitr+0x502>
    37dc:	48 8d b4 24 50 20 00 	lea    0x2050(%rsp),%rsi
    37e3:	00 
    37e4:	48 8d 7c 24 40       	lea    0x40(%rsp),%rdi
    37e9:	ba 00 20 00 00       	mov    $0x2000,%edx
    37ee:	e8 72 fa ff ff       	call   3265 <rio_readlineb>
    37f3:	48 85 c0             	test   %rax,%rax
    37f6:	7e 61                	jle    3859 <submitr+0x52b>
    37f8:	48 8d b4 24 50 20 00 	lea    0x2050(%rsp),%rsi
    37ff:	00 
    3800:	4c 89 ff             	mov    %r15,%rdi
    3803:	e8 28 ea ff ff       	call   2230 <strcpy@plt>
    3808:	44 89 e7             	mov    %r12d,%edi
    380b:	e8 70 ea ff ff       	call   2280 <close@plt>
    3810:	b9 03 00 00 00       	mov    $0x3,%ecx
    3815:	48 8d 3d a5 11 00 00 	lea    0x11a5(%rip),%rdi        # 49c1 <array.3472+0x7c1>
    381c:	4c 89 fe             	mov    %r15,%rsi
    381f:	f3 a6                	repz cmpsb %es:(%rdi),%ds:(%rsi)
    3821:	0f 97 c0             	seta   %al
    3824:	1c 00                	sbb    $0x0,%al
    3826:	84 c0                	test   %al,%al
    3828:	0f 95 c0             	setne  %al
    382b:	0f b6 c0             	movzbl %al,%eax
    382e:	f7 d8                	neg    %eax
    3830:	48 8b 94 24 58 a0 00 	mov    0xa058(%rsp),%rdx
    3837:	00 
    3838:	64 48 33 14 25 28 00 	xor    %fs:0x28,%rdx
    383f:	00 00 
    3841:	0f 85 04 03 00 00    	jne    3b4b <submitr+0x81d>
    3847:	48 81 c4 68 a0 00 00 	add    $0xa068,%rsp
    384e:	5b                   	pop    %rbx
    384f:	5d                   	pop    %rbp
    3850:	41 5c                	pop    %r12
    3852:	41 5d                	pop    %r13
    3854:	41 5e                	pop    %r14
    3856:	41 5f                	pop    %r15
    3858:	c3                   	ret    
    3859:	48 b8 45 72 72 6f 72 	movabs $0x43203a726f727245,%rax
    3860:	3a 20 43 
    3863:	48 ba 6c 69 65 6e 74 	movabs $0x6e7520746e65696c,%rdx
    386a:	20 75 6e 
    386d:	49 89 07             	mov    %rax,(%r15)
    3870:	49 89 57 08          	mov    %rdx,0x8(%r15)
    3874:	48 b8 61 62 6c 65 20 	movabs $0x206f7420656c6261,%rax
    387b:	74 6f 20 
    387e:	48 ba 72 65 61 64 20 	movabs $0x6174732064616572,%rdx
    3885:	73 74 61 
    3888:	49 89 47 10          	mov    %rax,0x10(%r15)
    388c:	49 89 57 18          	mov    %rdx,0x18(%r15)
    3890:	48 b8 74 75 73 20 6d 	movabs $0x7373656d20737574,%rax
    3897:	65 73 73 
    389a:	48 ba 61 67 65 20 66 	movabs $0x6d6f726620656761,%rdx
    38a1:	72 6f 6d 
    38a4:	49 89 47 20          	mov    %rax,0x20(%r15)
    38a8:	49 89 57 28          	mov    %rdx,0x28(%r15)
    38ac:	48 b8 20 73 65 72 76 	movabs $0x72657672657320,%rax
    38b3:	65 72 00 
    38b6:	49 89 47 30          	mov    %rax,0x30(%r15)
    38ba:	44 89 e7             	mov    %r12d,%edi
    38bd:	e8 be e9 ff ff       	call   2280 <close@plt>
    38c2:	b8 ff ff ff ff       	mov    $0xffffffff,%eax
    38c7:	e9 64 ff ff ff       	jmp    3830 <submitr+0x502>
    38cc:	48 b8 45 72 72 6f 72 	movabs $0x43203a726f727245,%rax
    38d3:	3a 20 43 
    38d6:	48 ba 6c 69 65 6e 74 	movabs $0x6e7520746e65696c,%rdx
    38dd:	20 75 6e 
    38e0:	49 89 07             	mov    %rax,(%r15)
    38e3:	49 89 57 08          	mov    %rdx,0x8(%r15)
    38e7:	48 b8 61 62 6c 65 20 	movabs $0x206f7420656c6261,%rax
    38ee:	74 6f 20 
    38f1:	48 ba 77 72 69 74 65 	movabs $0x6f74206574697277,%rdx
    38f8:	20 74 6f 
    38fb:	49 89 47 10          	mov    %rax,0x10(%r15)
    38ff:	49 89 57 18          	mov    %rdx,0x18(%r15)
    3903:	48 b8 20 74 68 65 20 	movabs $0x7265732065687420,%rax
    390a:	73 65 72 
    390d:	49 89 47 20          	mov    %rax,0x20(%r15)
    3911:	41 c7 47 28 76 65 72 	movl   $0x726576,0x28(%r15)
    3918:	00 
    3919:	44 89 e7             	mov    %r12d,%edi
    391c:	e8 5f e9 ff ff       	call   2280 <close@plt>
    3921:	b8 ff ff ff ff       	mov    $0xffffffff,%eax
    3926:	e9 05 ff ff ff       	jmp    3830 <submitr+0x502>
    392b:	48 b8 45 72 72 6f 72 	movabs $0x52203a726f727245,%rax
    3932:	3a 20 52 
    3935:	48 ba 65 73 75 6c 74 	movabs $0x747320746c757365,%rdx
    393c:	20 73 74 
    393f:	49 89 07             	mov    %rax,(%r15)
    3942:	49 89 57 08          	mov    %rdx,0x8(%r15)
    3946:	48 b8 72 69 6e 67 20 	movabs $0x6e6f6320676e6972,%rax
    394d:	63 6f 6e 
    3950:	48 ba 74 61 69 6e 73 	movabs $0x6e6120736e696174,%rdx
    3957:	20 61 6e 
    395a:	49 89 47 10          	mov    %rax,0x10(%r15)
    395e:	49 89 57 18          	mov    %rdx,0x18(%r15)
    3962:	48 b8 20 69 6c 6c 65 	movabs $0x6c6167656c6c6920,%rax
    3969:	67 61 6c 
    396c:	48 ba 20 6f 72 20 75 	movabs $0x72706e7520726f20,%rdx
    3973:	6e 70 72 
    3976:	49 89 47 20          	mov    %rax,0x20(%r15)
    397a:	49 89 57 28          	mov    %rdx,0x28(%r15)
    397e:	48 b8 69 6e 74 61 62 	movabs $0x20656c6261746e69,%rax
    3985:	6c 65 20 
    3988:	48 ba 63 68 61 72 61 	movabs $0x6574636172616863,%rdx
    398f:	63 74 65 
    3992:	49 89 47 30          	mov    %rax,0x30(%r15)
    3996:	49 89 57 38          	mov    %rdx,0x38(%r15)
    399a:	66 41 c7 47 40 72 2e 	movw   $0x2e72,0x40(%r15)
    39a1:	41 c6 47 42 00       	movb   $0x0,0x42(%r15)
    39a6:	44 89 e7             	mov    %r12d,%edi
    39a9:	e8 d2 e8 ff ff       	call   2280 <close@plt>
    39ae:	b8 ff ff ff ff       	mov    $0xffffffff,%eax
    39b3:	e9 78 fe ff ff       	jmp    3830 <submitr+0x502>
    39b8:	48 8d ac 24 50 20 00 	lea    0x2050(%rsp),%rbp
    39bf:	00 
    39c0:	48 8d 84 24 50 40 00 	lea    0x4050(%rsp),%rax
    39c7:	00 
    39c8:	50                   	push   %rax
    39c9:	ff 74 24 20          	push   0x20(%rsp)
    39cd:	4c 8b 4c 24 20       	mov    0x20(%rsp),%r9
    39d2:	4c 8b 44 24 18       	mov    0x18(%rsp),%r8
    39d7:	48 8d 0d 52 0f 00 00 	lea    0xf52(%rip),%rcx        # 4930 <array.3472+0x730>
    39de:	ba 00 20 00 00       	mov    $0x2000,%edx
    39e3:	be 01 00 00 00       	mov    $0x1,%esi
    39e8:	48 89 ef             	mov    %rbp,%rdi
    39eb:	b8 00 00 00 00       	mov    $0x0,%eax
    39f0:	e8 ab e9 ff ff       	call   23a0 <__sprintf_chk@plt>
    39f5:	48 c7 c1 ff ff ff ff 	mov    $0xffffffffffffffff,%rcx
    39fc:	b8 00 00 00 00       	mov    $0x0,%eax
    3a01:	48 89 ef             	mov    %rbp,%rdi
    3a04:	f2 ae                	repnz scas %es:(%rdi),%al
    3a06:	48 f7 d1             	not    %rcx
    3a09:	48 83 c4 10          	add    $0x10,%rsp
    3a0d:	48 8d ac 24 50 20 00 	lea    0x2050(%rsp),%rbp
    3a14:	00 
    3a15:	41 bd 00 00 00 00    	mov    $0x0,%r13d
    3a1b:	48 89 cb             	mov    %rcx,%rbx
    3a1e:	48 83 eb 01          	sub    $0x1,%rbx
    3a22:	0f 85 e3 fc ff ff    	jne    370b <submitr+0x3dd>
    3a28:	44 89 64 24 40       	mov    %r12d,0x40(%rsp)
    3a2d:	c7 44 24 44 00 00 00 	movl   $0x0,0x44(%rsp)
    3a34:	00 
    3a35:	48 8d 7c 24 40       	lea    0x40(%rsp),%rdi
    3a3a:	48 8d 44 24 50       	lea    0x50(%rsp),%rax
    3a3f:	48 89 44 24 48       	mov    %rax,0x48(%rsp)
    3a44:	48 8d b4 24 50 20 00 	lea    0x2050(%rsp),%rsi
    3a4b:	00 
    3a4c:	ba 00 20 00 00       	mov    $0x2000,%edx
    3a51:	e8 0f f8 ff ff       	call   3265 <rio_readlineb>
    3a56:	48 85 c0             	test   %rax,%rax
    3a59:	0f 8e d2 fc ff ff    	jle    3731 <submitr+0x403>
    3a5f:	48 8d 4c 24 2c       	lea    0x2c(%rsp),%rcx
    3a64:	48 8d 94 24 50 60 00 	lea    0x6050(%rsp),%rdx
    3a6b:	00 
    3a6c:	48 8d bc 24 50 20 00 	lea    0x2050(%rsp),%rdi
    3a73:	00 
    3a74:	4c 8d 84 24 50 80 00 	lea    0x8050(%rsp),%r8
    3a7b:	00 
    3a7c:	48 8d 35 2a 0f 00 00 	lea    0xf2a(%rip),%rsi        # 49ad <array.3472+0x7ad>
    3a83:	b8 00 00 00 00       	mov    $0x0,%eax
    3a88:	e8 83 e8 ff ff       	call   2310 <__isoc99_sscanf@plt>
    3a8d:	44 8b 44 24 2c       	mov    0x2c(%rsp),%r8d
    3a92:	41 81 f8 c8 00 00 00 	cmp    $0xc8,%r8d
    3a99:	0f 85 06 fd ff ff    	jne    37a5 <submitr+0x477>
    3a9f:	48 8d 1d 18 0f 00 00 	lea    0xf18(%rip),%rbx        # 49be <array.3472+0x7be>
    3aa6:	48 8d b4 24 50 20 00 	lea    0x2050(%rsp),%rsi
    3aad:	00 
    3aae:	b9 03 00 00 00       	mov    $0x3,%ecx
    3ab3:	48 89 df             	mov    %rbx,%rdi
    3ab6:	f3 a6                	repz cmpsb %es:(%rdi),%ds:(%rsi)
    3ab8:	0f 97 c0             	seta   %al
    3abb:	1c 00                	sbb    $0x0,%al
    3abd:	84 c0                	test   %al,%al
    3abf:	0f 84 17 fd ff ff    	je     37dc <submitr+0x4ae>
    3ac5:	48 8d b4 24 50 20 00 	lea    0x2050(%rsp),%rsi
    3acc:	00 
    3acd:	48 8d 7c 24 40       	lea    0x40(%rsp),%rdi
    3ad2:	ba 00 20 00 00       	mov    $0x2000,%edx
    3ad7:	e8 89 f7 ff ff       	call   3265 <rio_readlineb>
    3adc:	48 85 c0             	test   %rax,%rax
    3adf:	7f c5                	jg     3aa6 <submitr+0x778>
    3ae1:	48 b8 45 72 72 6f 72 	movabs $0x43203a726f727245,%rax
    3ae8:	3a 20 43 
    3aeb:	48 ba 6c 69 65 6e 74 	movabs $0x6e7520746e65696c,%rdx
    3af2:	20 75 6e 
    3af5:	49 89 07             	mov    %rax,(%r15)
    3af8:	49 89 57 08          	mov    %rdx,0x8(%r15)
    3afc:	48 b8 61 62 6c 65 20 	movabs $0x206f7420656c6261,%rax
    3b03:	74 6f 20 
    3b06:	48 ba 72 65 61 64 20 	movabs $0x6165682064616572,%rdx
    3b0d:	68 65 61 
    3b10:	49 89 47 10          	mov    %rax,0x10(%r15)
    3b14:	49 89 57 18          	mov    %rdx,0x18(%r15)
    3b18:	48 b8 64 65 72 73 20 	movabs $0x6f72662073726564,%rax
    3b1f:	66 72 6f 
    3b22:	48 ba 6d 20 73 65 72 	movabs $0x726576726573206d,%rdx
    3b29:	76 65 72 
    3b2c:	49 89 47 20          	mov    %rax,0x20(%r15)
    3b30:	49 89 57 28          	mov    %rdx,0x28(%r15)
    3b34:	41 c6 47 30 00       	movb   $0x0,0x30(%r15)
    3b39:	44 89 e7             	mov    %r12d,%edi
    3b3c:	e8 3f e7 ff ff       	call   2280 <close@plt>
    3b41:	b8 ff ff ff ff       	mov    $0xffffffff,%eax
    3b46:	e9 e5 fc ff ff       	jmp    3830 <submitr+0x502>
    3b4b:	e8 10 e7 ff ff       	call   2260 <__stack_chk_fail@plt>

0000000000003b50 <init_timeout>:
    3b50:	f3 0f 1e fa          	endbr64 
    3b54:	85 ff                	test   %edi,%edi
    3b56:	75 01                	jne    3b59 <init_timeout+0x9>
    3b58:	c3                   	ret    
    3b59:	53                   	push   %rbx
    3b5a:	89 fb                	mov    %edi,%ebx
    3b5c:	48 8d 35 cc f6 ff ff 	lea    -0x934(%rip),%rsi        # 322f <sigalrm_handler>
    3b63:	bf 0e 00 00 00       	mov    $0xe,%edi
    3b68:	e8 43 e7 ff ff       	call   22b0 <signal@plt>
    3b6d:	85 db                	test   %ebx,%ebx
    3b6f:	bf 00 00 00 00       	mov    $0x0,%edi
    3b74:	0f 49 fb             	cmovns %ebx,%edi
    3b77:	e8 f4 e6 ff ff       	call   2270 <alarm@plt>
    3b7c:	5b                   	pop    %rbx
    3b7d:	c3                   	ret    

0000000000003b7e <init_driver>:
    3b7e:	f3 0f 1e fa          	endbr64 
    3b82:	41 54                	push   %r12
    3b84:	55                   	push   %rbp
    3b85:	53                   	push   %rbx
    3b86:	48 83 ec 20          	sub    $0x20,%rsp
    3b8a:	48 89 fd             	mov    %rdi,%rbp
    3b8d:	64 48 8b 04 25 28 00 	mov    %fs:0x28,%rax
    3b94:	00 00 
    3b96:	48 89 44 24 18       	mov    %rax,0x18(%rsp)
    3b9b:	31 c0                	xor    %eax,%eax
    3b9d:	be 01 00 00 00       	mov    $0x1,%esi
    3ba2:	bf 0d 00 00 00       	mov    $0xd,%edi
    3ba7:	e8 04 e7 ff ff       	call   22b0 <signal@plt>
    3bac:	be 01 00 00 00       	mov    $0x1,%esi
    3bb1:	bf 1d 00 00 00       	mov    $0x1d,%edi
    3bb6:	e8 f5 e6 ff ff       	call   22b0 <signal@plt>
    3bbb:	be 01 00 00 00       	mov    $0x1,%esi
    3bc0:	bf 1d 00 00 00       	mov    $0x1d,%edi
    3bc5:	e8 e6 e6 ff ff       	call   22b0 <signal@plt>
    3bca:	ba 00 00 00 00       	mov    $0x0,%edx
    3bcf:	be 01 00 00 00       	mov    $0x1,%esi
    3bd4:	bf 02 00 00 00       	mov    $0x2,%edi
    3bd9:	e8 d2 e7 ff ff       	call   23b0 <socket@plt>
    3bde:	85 c0                	test   %eax,%eax
    3be0:	0f 88 9c 00 00 00    	js     3c82 <init_driver+0x104>
    3be6:	89 c3                	mov    %eax,%ebx
    3be8:	48 8d 3d d5 0d 00 00 	lea    0xdd5(%rip),%rdi        # 49c4 <array.3472+0x7c4>
    3bef:	e8 cc e6 ff ff       	call   22c0 <gethostbyname@plt>
    3bf4:	48 85 c0             	test   %rax,%rax
    3bf7:	0f 84 d1 00 00 00    	je     3cce <init_driver+0x150>
    3bfd:	49 89 e4             	mov    %rsp,%r12
    3c00:	48 c7 04 24 00 00 00 	movq   $0x0,(%rsp)
    3c07:	00 
    3c08:	48 c7 44 24 08 00 00 	movq   $0x0,0x8(%rsp)
    3c0f:	00 00 
    3c11:	66 c7 04 24 02 00    	movw   $0x2,(%rsp)
    3c17:	48 63 50 14          	movslq 0x14(%rax),%rdx
    3c1b:	48 8b 40 18          	mov    0x18(%rax),%rax
    3c1f:	48 8d 7c 24 04       	lea    0x4(%rsp),%rdi
    3c24:	b9 0c 00 00 00       	mov    $0xc,%ecx
    3c29:	48 8b 30             	mov    (%rax),%rsi
    3c2c:	e8 9f e6 ff ff       	call   22d0 <__memmove_chk@plt>
    3c31:	66 c7 44 24 02 43 95 	movw   $0x9543,0x2(%rsp)
    3c38:	ba 10 00 00 00       	mov    $0x10,%edx
    3c3d:	4c 89 e6             	mov    %r12,%rsi
    3c40:	89 df                	mov    %ebx,%edi
    3c42:	e8 19 e7 ff ff       	call   2360 <connect@plt>
    3c47:	85 c0                	test   %eax,%eax
    3c49:	0f 88 e7 00 00 00    	js     3d36 <init_driver+0x1b8>
    3c4f:	89 df                	mov    %ebx,%edi
    3c51:	e8 2a e6 ff ff       	call   2280 <close@plt>
    3c56:	66 c7 45 00 4f 4b    	movw   $0x4b4f,0x0(%rbp)
    3c5c:	c6 45 02 00          	movb   $0x0,0x2(%rbp)
    3c60:	b8 00 00 00 00       	mov    $0x0,%eax
    3c65:	48 8b 4c 24 18       	mov    0x18(%rsp),%rcx
    3c6a:	64 48 33 0c 25 28 00 	xor    %fs:0x28,%rcx
    3c71:	00 00 
    3c73:	0f 85 f5 00 00 00    	jne    3d6e <init_driver+0x1f0>
    3c79:	48 83 c4 20          	add    $0x20,%rsp
    3c7d:	5b                   	pop    %rbx
    3c7e:	5d                   	pop    %rbp
    3c7f:	41 5c                	pop    %r12
    3c81:	c3                   	ret    
    3c82:	48 b8 45 72 72 6f 72 	movabs $0x43203a726f727245,%rax
    3c89:	3a 20 43 
    3c8c:	48 ba 6c 69 65 6e 74 	movabs $0x6e7520746e65696c,%rdx
    3c93:	20 75 6e 
    3c96:	48 89 45 00          	mov    %rax,0x0(%rbp)
    3c9a:	48 89 55 08          	mov    %rdx,0x8(%rbp)
    3c9e:	48 b8 61 62 6c 65 20 	movabs $0x206f7420656c6261,%rax
    3ca5:	74 6f 20 
    3ca8:	48 ba 63 72 65 61 74 	movabs $0x7320657461657263,%rdx
    3caf:	65 20 73 
    3cb2:	48 89 45 10          	mov    %rax,0x10(%rbp)
    3cb6:	48 89 55 18          	mov    %rdx,0x18(%rbp)
    3cba:	c7 45 20 6f 63 6b 65 	movl   $0x656b636f,0x20(%rbp)
    3cc1:	66 c7 45 24 74 00    	movw   $0x74,0x24(%rbp)
    3cc7:	b8 ff ff ff ff       	mov    $0xffffffff,%eax
    3ccc:	eb 97                	jmp    3c65 <init_driver+0xe7>
    3cce:	48 b8 45 72 72 6f 72 	movabs $0x44203a726f727245,%rax
    3cd5:	3a 20 44 
    3cd8:	48 ba 4e 53 20 69 73 	movabs $0x6e7520736920534e,%rdx
    3cdf:	20 75 6e 
    3ce2:	48 89 45 00          	mov    %rax,0x0(%rbp)
    3ce6:	48 89 55 08          	mov    %rdx,0x8(%rbp)
    3cea:	48 b8 61 62 6c 65 20 	movabs $0x206f7420656c6261,%rax
    3cf1:	74 6f 20 
    3cf4:	48 ba 72 65 73 6f 6c 	movabs $0x2065766c6f736572,%rdx
    3cfb:	76 65 20 
    3cfe:	48 89 45 10          	mov    %rax,0x10(%rbp)
    3d02:	48 89 55 18          	mov    %rdx,0x18(%rbp)
    3d06:	48 b8 73 65 72 76 65 	movabs $0x6120726576726573,%rax
    3d0d:	72 20 61 
    3d10:	48 89 45 20          	mov    %rax,0x20(%rbp)
    3d14:	c7 45 28 64 64 72 65 	movl   $0x65726464,0x28(%rbp)
    3d1b:	66 c7 45 2c 73 73    	movw   $0x7373,0x2c(%rbp)
    3d21:	c6 45 2e 00          	movb   $0x0,0x2e(%rbp)
    3d25:	89 df                	mov    %ebx,%edi
    3d27:	e8 54 e5 ff ff       	call   2280 <close@plt>
    3d2c:	b8 ff ff ff ff       	mov    $0xffffffff,%eax
    3d31:	e9 2f ff ff ff       	jmp    3c65 <init_driver+0xe7>
    3d36:	4c 8d 05 87 0c 00 00 	lea    0xc87(%rip),%r8        # 49c4 <array.3472+0x7c4>
    3d3d:	48 8d 0d 3c 0c 00 00 	lea    0xc3c(%rip),%rcx        # 4980 <array.3472+0x780>
    3d44:	48 c7 c2 ff ff ff ff 	mov    $0xffffffffffffffff,%rdx
    3d4b:	be 01 00 00 00       	mov    $0x1,%esi
    3d50:	48 89 ef             	mov    %rbp,%rdi
    3d53:	b8 00 00 00 00       	mov    $0x0,%eax
    3d58:	e8 43 e6 ff ff       	call   23a0 <__sprintf_chk@plt>
    3d5d:	89 df                	mov    %ebx,%edi
    3d5f:	e8 1c e5 ff ff       	call   2280 <close@plt>
    3d64:	b8 ff ff ff ff       	mov    $0xffffffff,%eax
    3d69:	e9 f7 fe ff ff       	jmp    3c65 <init_driver+0xe7>
    3d6e:	e8 ed e4 ff ff       	call   2260 <__stack_chk_fail@plt>

0000000000003d73 <driver_post>:
    3d73:	f3 0f 1e fa          	endbr64 
    3d77:	53                   	push   %rbx
    3d78:	48 89 cb             	mov    %rcx,%rbx
    3d7b:	85 d2                	test   %edx,%edx
    3d7d:	75 17                	jne    3d96 <driver_post+0x23>
    3d7f:	48 85 ff             	test   %rdi,%rdi
    3d82:	74 05                	je     3d89 <driver_post+0x16>
    3d84:	80 3f 00             	cmpb   $0x0,(%rdi)
    3d87:	75 36                	jne    3dbf <driver_post+0x4c>
    3d89:	66 c7 03 4f 4b       	movw   $0x4b4f,(%rbx)
    3d8e:	c6 43 02 00          	movb   $0x0,0x2(%rbx)
    3d92:	89 d0                	mov    %edx,%eax
    3d94:	5b                   	pop    %rbx
    3d95:	c3                   	ret    
    3d96:	48 89 f2             	mov    %rsi,%rdx
    3d99:	48 8d 35 3b 0c 00 00 	lea    0xc3b(%rip),%rsi        # 49db <array.3472+0x7db>
    3da0:	bf 01 00 00 00       	mov    $0x1,%edi
    3da5:	b8 00 00 00 00       	mov    $0x0,%eax
    3daa:	e8 71 e5 ff ff       	call   2320 <__printf_chk@plt>
    3daf:	66 c7 03 4f 4b       	movw   $0x4b4f,(%rbx)
    3db4:	c6 43 02 00          	movb   $0x0,0x2(%rbx)
    3db8:	b8 00 00 00 00       	mov    $0x0,%eax
    3dbd:	eb d5                	jmp    3d94 <driver_post+0x21>
    3dbf:	48 83 ec 08          	sub    $0x8,%rsp
    3dc3:	51                   	push   %rcx
    3dc4:	49 89 f1             	mov    %rsi,%r9
    3dc7:	4c 8d 05 24 0c 00 00 	lea    0xc24(%rip),%r8        # 49f2 <array.3472+0x7f2>
    3dce:	48 89 f9             	mov    %rdi,%rcx
    3dd1:	48 8d 15 25 0c 00 00 	lea    0xc25(%rip),%rdx        # 49fd <array.3472+0x7fd>
    3dd8:	be 95 43 00 00       	mov    $0x4395,%esi
    3ddd:	48 8d 3d e0 0b 00 00 	lea    0xbe0(%rip),%rdi        # 49c4 <array.3472+0x7c4>
    3de4:	e8 45 f5 ff ff       	call   332e <submitr>
    3de9:	48 83 c4 10          	add    $0x10,%rsp
    3ded:	eb a5                	jmp    3d94 <driver_post+0x21>
    3def:	90                   	nop

0000000000003df0 <__libc_csu_init>:
    3df0:	f3 0f 1e fa          	endbr64 
    3df4:	41 57                	push   %r15
    3df6:	4c 8d 3d e3 2e 00 00 	lea    0x2ee3(%rip),%r15        # 6ce0 <__frame_dummy_init_array_entry>
    3dfd:	41 56                	push   %r14
    3dff:	49 89 d6             	mov    %rdx,%r14
    3e02:	41 55                	push   %r13
    3e04:	49 89 f5             	mov    %rsi,%r13
    3e07:	41 54                	push   %r12
    3e09:	41 89 fc             	mov    %edi,%r12d
    3e0c:	55                   	push   %rbp
    3e0d:	48 8d 2d d4 2e 00 00 	lea    0x2ed4(%rip),%rbp        # 6ce8 <__do_global_dtors_aux_fini_array_entry>
    3e14:	53                   	push   %rbx
    3e15:	4c 29 fd             	sub    %r15,%rbp
    3e18:	48 83 ec 08          	sub    $0x8,%rsp
    3e1c:	e8 df e1 ff ff       	call   2000 <_init>
    3e21:	48 c1 fd 03          	sar    $0x3,%rbp
    3e25:	74 1f                	je     3e46 <__libc_csu_init+0x56>
    3e27:	31 db                	xor    %ebx,%ebx
    3e29:	0f 1f 80 00 00 00 00 	nopl   0x0(%rax)
    3e30:	4c 89 f2             	mov    %r14,%rdx
    3e33:	4c 89 ee             	mov    %r13,%rsi
    3e36:	44 89 e7             	mov    %r12d,%edi
    3e39:	41 ff 14 df          	call   *(%r15,%rbx,8)
    3e3d:	48 83 c3 01          	add    $0x1,%rbx
    3e41:	48 39 dd             	cmp    %rbx,%rbp
    3e44:	75 ea                	jne    3e30 <__libc_csu_init+0x40>
    3e46:	48 83 c4 08          	add    $0x8,%rsp
    3e4a:	5b                   	pop    %rbx
    3e4b:	5d                   	pop    %rbp
    3e4c:	41 5c                	pop    %r12
    3e4e:	41 5d                	pop    %r13
    3e50:	41 5e                	pop    %r14
    3e52:	41 5f                	pop    %r15
    3e54:	c3                   	ret    
    3e55:	66 66 2e 0f 1f 84 00 	data16 cs nopw 0x0(%rax,%rax,1)
    3e5c:	00 00 00 00 

0000000000003e60 <__libc_csu_fini>:
    3e60:	f3 0f 1e fa          	endbr64 
    3e64:	c3                   	ret    

Disassembly of section .fini:

0000000000003e68 <_fini>:
    3e68:	f3 0f 1e fa          	endbr64 
    3e6c:	48 83 ec 08          	sub    $0x8,%rsp
    3e70:	48 83 c4 08          	add    $0x8,%rsp
    3e74:	c3                   	ret    
